; generated by Component: ARM Compiler 5.05 update 1 (build 106) Tool: ArmCC [4d0efa]
; commandline ArmCC [--list --split_sections --debug -c --asm --interleave -o.\flash\obj\measurement.o --asm_dir=.\Flash\List\ --list_dir=.\Flash\List\ --depend=.\flash\obj\measurement.d --cpu=Cortex-M4.fp --apcs=interwork -O0 --diag_suppress=9931,870 -I..\User -I..\Libraries\STM32F4xx_StdPeriph_Driver\inc -I..\Libraries\CMSIS\Device\ST\STM32F4xx\Include -I..\User\fonts -I..\emWin\GUI_X -I..\emWin\Config -I..\emWin\Include -I..\emWin\emWinTask -I..\User\bsp_stm32f4xx -I..\User\bsp_stm32f4xx\inc -I..\User\images -I..\User\bsp_stm32f4xx\src -I..\User\DSP_Lib\inc -I..\User\DSP_Lib\src -I..\Libraries\STM32F4x7_ETH_Driver\src -I..\Libraries\STM32F4x7_ETH_Driver\inc -IC:\Keil_v5\ARM\RV31\INC -IC:\Keil_v5\ARM\CMSIS\Include -IC:\Keil_v5\ARM\Inc\ST\STM32F4xx -D__MICROLIB -D__UVISION_VERSION=514 -DUSE_STDPERIPH_DRIVER -DSTM32F427_437xx -DSTM32F427_437xx --omf_browse=.\flash\obj\measurement.crf ..\User\measurement.c]
                          THUMB

                          AREA ||i.Air||, CODE, READONLY, ALIGN=1

                  Air PROC
;;;117    }
;;;118    void  Air(void)
000000  b510              PUSH     {r4,lr}
;;;119    {
000002  b08c              SUB      sp,sp,#0x30
;;;120      u8 i;
;;;121    	Valve(171);
000004  20ab              MOVS     r0,#0xab
000006  f7fffffe          BL       Valve
;;;122    	Valve(181);		//3180-->3500
00000a  20b5              MOVS     r0,#0xb5
00000c  f7fffffe          BL       Valve
;;;123    	Motorun(0,3500,FORWARD,0,  30,65,8,20, 30,5,20,0,    81,150,160);      //抽气
000010  20a0              MOVS     r0,#0xa0
000012  2196              MOVS     r1,#0x96
000014  2251              MOVS     r2,#0x51
000016  2300              MOVS     r3,#0
000018  e9cd3207          STRD     r3,r2,[sp,#0x1c]
00001c  e9cd1009          STRD     r1,r0,[sp,#0x24]
000020  2014              MOVS     r0,#0x14
000022  2105              MOVS     r1,#5
000024  221e              MOVS     r2,#0x1e
000026  e9cd0203          STRD     r0,r2,[sp,#0xc]
00002a  e9cd1005          STRD     r1,r0,[sp,#0x14]
00002e  2008              MOVS     r0,#8
000030  2141              MOVS     r1,#0x41
000032  e9cd2100          STRD     r2,r1,[sp,#0]
000036  9002              STR      r0,[sp,#8]
000038  461a              MOV      r2,r3
00003a  f64051ac          MOV      r1,#0xdac
00003e  4618              MOV      r0,r3
000040  f7fffffe          BL       Motorun
;;;124    	Motorun(0,3500,BACKWARD,0, 30,65,8,20, 30,5,20,200,  80,151,170);      //打气,清洗
000044  20aa              MOVS     r0,#0xaa
000046  2197              MOVS     r1,#0x97
000048  2250              MOVS     r2,#0x50
00004a  23c8              MOVS     r3,#0xc8
00004c  e9cd3207          STRD     r3,r2,[sp,#0x1c]
000050  e9cd1009          STRD     r1,r0,[sp,#0x24]
000054  2014              MOVS     r0,#0x14
000056  2105              MOVS     r1,#5
000058  221e              MOVS     r2,#0x1e
00005a  e9cd0203          STRD     r0,r2,[sp,#0xc]
00005e  e9cd1005          STRD     r1,r0,[sp,#0x14]
000062  2008              MOVS     r0,#8
000064  2141              MOVS     r1,#0x41
000066  2300              MOVS     r3,#0
000068  e9cd2100          STRD     r2,r1,[sp,#0]
00006c  9002              STR      r0,[sp,#8]
00006e  2201              MOVS     r2,#1
000070  f64051ac          MOV      r1,#0xdac
000074  4618              MOV      r0,r3
000076  f7fffffe          BL       Motorun
;;;125    	for(i=0;i<2;i++)
00007a  2400              MOVS     r4,#0
00007c  e039              B        |L1.242|
                  |L1.126|
;;;126    	{
;;;127    		Motorun(0,3500,FORWARD,0,  30,65,8,20, 30,5,20,0,    81,150,171);      //抽气
00007e  20ab              MOVS     r0,#0xab
000080  2196              MOVS     r1,#0x96
000082  2251              MOVS     r2,#0x51
000084  2300              MOVS     r3,#0
000086  e9cd3207          STRD     r3,r2,[sp,#0x1c]
00008a  e9cd1009          STRD     r1,r0,[sp,#0x24]
00008e  2014              MOVS     r0,#0x14
000090  2105              MOVS     r1,#5
000092  221e              MOVS     r2,#0x1e
000094  e9cd0203          STRD     r0,r2,[sp,#0xc]
000098  e9cd1005          STRD     r1,r0,[sp,#0x14]
00009c  2008              MOVS     r0,#8
00009e  2141              MOVS     r1,#0x41
0000a0  e9cd2100          STRD     r2,r1,[sp,#0]
0000a4  9002              STR      r0,[sp,#8]
0000a6  461a              MOV      r2,r3
0000a8  f64051ac          MOV      r1,#0xdac
0000ac  4618              MOV      r0,r3
0000ae  f7fffffe          BL       Motorun
;;;128    		Motorun(0,3500,BACKWARD,0, 30,65,8,20, 30,5,20,200,  80,151,170);      //打气,清洗
0000b2  20aa              MOVS     r0,#0xaa
0000b4  2197              MOVS     r1,#0x97
0000b6  2250              MOVS     r2,#0x50
0000b8  23c8              MOVS     r3,#0xc8
0000ba  e9cd3207          STRD     r3,r2,[sp,#0x1c]
0000be  e9cd1009          STRD     r1,r0,[sp,#0x24]
0000c2  2014              MOVS     r0,#0x14
0000c4  2105              MOVS     r1,#5
0000c6  221e              MOVS     r2,#0x1e
0000c8  e9cd0203          STRD     r0,r2,[sp,#0xc]
0000cc  e9cd1005          STRD     r1,r0,[sp,#0x14]
0000d0  2008              MOVS     r0,#8
0000d2  2141              MOVS     r1,#0x41
0000d4  2300              MOVS     r3,#0
0000d6  e9cd2100          STRD     r2,r1,[sp,#0]
0000da  9002              STR      r0,[sp,#8]
0000dc  2201              MOVS     r2,#1
0000de  f64051ac          MOV      r1,#0xdac
0000e2  4618              MOV      r0,r3
0000e4  f7fffffe          BL       Motorun
;;;129    		bsp_DelayMS(4);
0000e8  2004              MOVS     r0,#4
0000ea  f7fffffe          BL       bsp_DelayMS
0000ee  1c60              ADDS     r0,r4,#1              ;125
0000f0  b2c4              UXTB     r4,r0                 ;125
                  |L1.242|
0000f2  2c02              CMP      r4,#2                 ;125
0000f4  dbc3              BLT      |L1.126|
;;;130    	}
;;;131    
;;;132    	Motorun(0,3500,FORWARD,0,      30,65,8,20,  30,5,20,0,   81,150,171);      //抽气
0000f6  20ab              MOVS     r0,#0xab
0000f8  2196              MOVS     r1,#0x96
0000fa  2251              MOVS     r2,#0x51
0000fc  2300              MOVS     r3,#0
0000fe  e9cd3207          STRD     r3,r2,[sp,#0x1c]
000102  e9cd1009          STRD     r1,r0,[sp,#0x24]
000106  2014              MOVS     r0,#0x14
000108  2105              MOVS     r1,#5
00010a  221e              MOVS     r2,#0x1e
00010c  e9cd0203          STRD     r0,r2,[sp,#0xc]
000110  e9cd1005          STRD     r1,r0,[sp,#0x14]
000114  2008              MOVS     r0,#8
000116  2141              MOVS     r1,#0x41
000118  e9cd2100          STRD     r2,r1,[sp,#0]
00011c  9002              STR      r0,[sp,#8]
00011e  461a              MOV      r2,r3
000120  f64051ac          MOV      r1,#0xdac
000124  4618              MOV      r0,r3
000126  f7fffffe          BL       Motorun
;;;133    	bsp_DelayMS(514);
00012a  f2402002          MOV      r0,#0x202
00012e  f7fffffe          BL       bsp_DelayMS
;;;134    	Valve(170);
000132  20aa              MOVS     r0,#0xaa
000134  f7fffffe          BL       Valve
;;;135    	Valve(180);
000138  20b4              MOVS     r0,#0xb4
00013a  f7fffffe          BL       Valve
;;;136    	Motorun(0,3500,BACKWARD,1,     27,27,0,1,  30,0,20,200, 80,151,170);      //打气，慢推1~3r/s，过程中测参比气体吸光度
00013e  20aa              MOVS     r0,#0xaa
000140  2197              MOVS     r1,#0x97
000142  2250              MOVS     r2,#0x50
000144  23c8              MOVS     r3,#0xc8
000146  e9cd3207          STRD     r3,r2,[sp,#0x1c]
00014a  e9cd1009          STRD     r1,r0,[sp,#0x24]
00014e  2014              MOVS     r0,#0x14
000150  2100              MOVS     r1,#0
000152  221e              MOVS     r2,#0x1e
000154  2301              MOVS     r3,#1
000156  e9cd3203          STRD     r3,r2,[sp,#0xc]
00015a  e9cd1005          STRD     r1,r0,[sp,#0x14]
00015e  4608              MOV      r0,r1
000160  211b              MOVS     r1,#0x1b
000162  9100              STR      r1,[sp,#0]
000164  461a              MOV      r2,r3
000166  e9cd1001          STRD     r1,r0,[sp,#4]
00016a  f64051ac          MOV      r1,#0xdac
00016e  2000              MOVS     r0,#0
000170  f7fffffe          BL       Motorun
;;;137    	bsp_DelayMS(200);	
000174  20c8              MOVS     r0,#0xc8
000176  f7fffffe          BL       bsp_DelayMS
;;;138    	Valve(150);
00017a  2096              MOVS     r0,#0x96
00017c  f7fffffe          BL       Valve
;;;139    	bsp_DelayMS(23);
000180  2017              MOVS     r0,#0x17
000182  f7fffffe          BL       bsp_DelayMS
;;;140    
;;;141    }
000186  b00c              ADD      sp,sp,#0x30
000188  bd10              POP      {r4,pc}
;;;142    void  AirFirst(void)
                          ENDP


                          AREA ||i.AirFirst||, CODE, READONLY, ALIGN=1

                  AirFirst PROC
;;;141    }
;;;142    void  AirFirst(void)
000000  b500              PUSH     {lr}
;;;143    {
000002  b08b              SUB      sp,sp,#0x2c
;;;144    //	u8 i;
;;;145    	Valve(171);
000004  20ab              MOVS     r0,#0xab
000006  f7fffffe          BL       Valve
;;;146    	Valve(181);	   //1270-->1500
00000a  20b5              MOVS     r0,#0xb5
00000c  f7fffffe          BL       Valve
;;;147    //	for(i=0;i<2;i++)
;;;148    //	{
;;;149    		Motorun(0,1500,FORWARD,0,  30,60,8,20,  30,2,20,0,     81,150,160);      //抽气
000010  20a0              MOVS     r0,#0xa0
000012  2196              MOVS     r1,#0x96
000014  2251              MOVS     r2,#0x51
000016  2300              MOVS     r3,#0
000018  e9cd3207          STRD     r3,r2,[sp,#0x1c]
00001c  e9cd1009          STRD     r1,r0,[sp,#0x24]
000020  2014              MOVS     r0,#0x14
000022  2102              MOVS     r1,#2
000024  221e              MOVS     r2,#0x1e
000026  e9cd0203          STRD     r0,r2,[sp,#0xc]
00002a  e9cd1005          STRD     r1,r0,[sp,#0x14]
00002e  2008              MOVS     r0,#8
000030  213c              MOVS     r1,#0x3c
000032  e9cd2100          STRD     r2,r1,[sp,#0]
000036  9002              STR      r0,[sp,#8]
000038  461a              MOV      r2,r3
00003a  f24051dc          MOV      r1,#0x5dc
00003e  4618              MOV      r0,r3
000040  f7fffffe          BL       Motorun
;;;150    		Motorun(0,1500,BACKWARD,0, 30,60,8,20,  30,2,20,200,  80,151,170);      //打气,清洗
000044  20aa              MOVS     r0,#0xaa
000046  2197              MOVS     r1,#0x97
000048  2250              MOVS     r2,#0x50
00004a  23c8              MOVS     r3,#0xc8
00004c  e9cd3207          STRD     r3,r2,[sp,#0x1c]
000050  e9cd1009          STRD     r1,r0,[sp,#0x24]
000054  2014              MOVS     r0,#0x14
000056  2102              MOVS     r1,#2
000058  221e              MOVS     r2,#0x1e
00005a  e9cd0203          STRD     r0,r2,[sp,#0xc]
00005e  e9cd1005          STRD     r1,r0,[sp,#0x14]
000062  2008              MOVS     r0,#8
000064  213c              MOVS     r1,#0x3c
000066  2300              MOVS     r3,#0
000068  e9cd2100          STRD     r2,r1,[sp,#0]
00006c  9002              STR      r0,[sp,#8]
00006e  2201              MOVS     r2,#1
000070  f24051dc          MOV      r1,#0x5dc
000074  4618              MOV      r0,r3
000076  f7fffffe          BL       Motorun
;;;151    		bsp_DelayMS(4);
00007a  2004              MOVS     r0,#4
00007c  f7fffffe          BL       bsp_DelayMS
;;;152    //	}
;;;153    	Valve(150);	 //2540-->3000
000080  2096              MOVS     r0,#0x96
000082  f7fffffe          BL       Valve
;;;154    	Motorun(0,3000,FORWARD,0,      30,60,8,20,  30,2,20,0,     81,0,171);      //抽气
000086  20ab              MOVS     r0,#0xab
000088  2100              MOVS     r1,#0
00008a  2251              MOVS     r2,#0x51
00008c  e9cd1207          STRD     r1,r2,[sp,#0x1c]
000090  e9cd1009          STRD     r1,r0,[sp,#0x24]
000094  2014              MOVS     r0,#0x14
000096  2102              MOVS     r1,#2
000098  221e              MOVS     r2,#0x1e
00009a  e9cd0203          STRD     r0,r2,[sp,#0xc]
00009e  e9cd1005          STRD     r1,r0,[sp,#0x14]
0000a2  2008              MOVS     r0,#8
0000a4  213c              MOVS     r1,#0x3c
0000a6  2300              MOVS     r3,#0
0000a8  e9cd2100          STRD     r2,r1,[sp,#0]
0000ac  9002              STR      r0,[sp,#8]
0000ae  461a              MOV      r2,r3
0000b0  f64031b8          MOV      r1,#0xbb8
0000b4  4618              MOV      r0,r3
0000b6  f7fffffe          BL       Motorun
;;;155    	bsp_DelayMS(444);
0000ba  f44f70de          MOV      r0,#0x1bc
0000be  f7fffffe          BL       bsp_DelayMS
;;;156    	Valve(80);	
0000c2  2050              MOVS     r0,#0x50
0000c4  f7fffffe          BL       Valve
;;;157    	Valve(151);
0000c8  2097              MOVS     r0,#0x97
0000ca  f7fffffe          BL       Valve
;;;158    	Valve(170);
0000ce  20aa              MOVS     r0,#0xaa
0000d0  f7fffffe          BL       Valve
;;;159    	Valve(180);
0000d4  20b4              MOVS     r0,#0xb4
0000d6  f7fffffe          BL       Valve
;;;160    	bsp_DelayMS(52);															
0000da  2034              MOVS     r0,#0x34
0000dc  f7fffffe          BL       bsp_DelayMS
;;;161    	Motorun(0,3000,BACKWARD,1,     27,27,0,0,  30,0,0,0,  0,0,0); 
0000e0  2000              MOVS     r0,#0
0000e2  9007              STR      r0,[sp,#0x1c]
0000e4  9008              STR      r0,[sp,#0x20]
0000e6  9009              STR      r0,[sp,#0x24]
0000e8  221e              MOVS     r2,#0x1e
0000ea  900a              STR      r0,[sp,#0x28]
0000ec  e9cd0203          STRD     r0,r2,[sp,#0xc]
0000f0  9005              STR      r0,[sp,#0x14]
0000f2  211b              MOVS     r1,#0x1b
0000f4  9100              STR      r1,[sp,#0]
0000f6  9006              STR      r0,[sp,#0x18]
0000f8  2301              MOVS     r3,#1
0000fa  461a              MOV      r2,r3
0000fc  e9cd1001          STRD     r1,r0,[sp,#4]
000100  f64031b8          MOV      r1,#0xbb8
000104  f7fffffe          BL       Motorun
;;;162    	bsp_DelayMS(75);
000108  204b              MOVS     r0,#0x4b
00010a  f7fffffe          BL       bsp_DelayMS
;;;163    }
00010e  b00b              ADD      sp,sp,#0x2c
000110  bd00              POP      {pc}
;;;164    /*-----------------------------
                          ENDP


                          AREA ||i.BaseFirst||, CODE, READONLY, ALIGN=2

                  BaseFirst PROC
;;;229    }
;;;230    void	BaseFirst(u8 Pnum,u16 m)
000000  e92d41f0          PUSH     {r4-r8,lr}
;;;231    {
000004  ed2d8b04          VPUSH    {d8-d9}
000008  b08c              SUB      sp,sp,#0x30
00000a  4604              MOV      r4,r0
00000c  460d              MOV      r5,r1
;;;232        u8 OpenValve=0,CloseValve=0;
00000e  2600              MOVS     r6,#0
000010  2700              MOVS     r7,#0
;;;233        switch(Pnum)
000012  2c07              CMP      r4,#7
000014  d217              BCS      |L3.70|
000016  e8dff004          TBB      [pc,r4]
00001a  1604              DCB      0x16,0x04
00001c  070a0d10          DCB      0x07,0x0a,0x0d,0x10
000020  1300              DCB      0x13,0x00
;;;234        {
;;;235        case 1:
;;;236            OpenValve=11,CloseValve=10;
000022  260b              MOVS     r6,#0xb
000024  270a              MOVS     r7,#0xa
;;;237            break;
000026  e00f              B        |L3.72|
;;;238        case 2:
;;;239            OpenValve=31,CloseValve=30;
000028  261f              MOVS     r6,#0x1f
00002a  271e              MOVS     r7,#0x1e
;;;240            break;
00002c  e00c              B        |L3.72|
;;;241        case 3:
;;;242            OpenValve=51,CloseValve=50;
00002e  2633              MOVS     r6,#0x33
000030  2732              MOVS     r7,#0x32
;;;243            break;
000032  e009              B        |L3.72|
;;;244        case 4:
;;;245            OpenValve=71,CloseValve=70;
000034  2647              MOVS     r6,#0x47
000036  2746              MOVS     r7,#0x46
;;;246            break;
000038  e006              B        |L3.72|
;;;247        case 5:		
;;;248            OpenValve=111,CloseValve=110;
00003a  266f              MOVS     r6,#0x6f
00003c  276e              MOVS     r7,#0x6e
;;;249            break;
00003e  e003              B        |L3.72|
;;;250        case 6:
;;;251            OpenValve=131,CloseValve=130;
000040  2683              MOVS     r6,#0x83
000042  2782              MOVS     r7,#0x82
;;;252            break;
000044  e000              B        |L3.72|
                  |L3.70|
;;;253        default:
;;;254            break;
000046  bf00              NOP      
                  |L3.72|
000048  bf00              NOP                            ;237
;;;255        }
;;;256    
;;;257    Valve(171);	
00004a  20ab              MOVS     r0,#0xab
00004c  f7fffffe          BL       Valve
;;;258    	Valve(181);	//1570-->1800
000050  20b5              MOVS     r0,#0xb5
000052  f7fffffe          BL       Valve
;;;259    	Motorun(0,1800,FORWARD,0,      30,60,8,20,      30,6,20,0, 	 OpenValve, 150, 160);   //抽气 4~8r/s	脉冲数:1500
000056  20a0              MOVS     r0,#0xa0
000058  2196              MOVS     r1,#0x96
00005a  2200              MOVS     r2,#0
00005c  e9cd2607          STRD     r2,r6,[sp,#0x1c]
000060  e9cd1009          STRD     r1,r0,[sp,#0x24]
000064  2014              MOVS     r0,#0x14
000066  2106              MOVS     r1,#6
000068  221e              MOVS     r2,#0x1e
00006a  e9cd0203          STRD     r0,r2,[sp,#0xc]
00006e  e9cd1005          STRD     r1,r0,[sp,#0x14]
000072  2008              MOVS     r0,#8
000074  213c              MOVS     r1,#0x3c
000076  2300              MOVS     r3,#0
000078  e9cd2100          STRD     r2,r1,[sp,#0]
00007c  9002              STR      r0,[sp,#8]
00007e  461a              MOV      r2,r3
000080  f44f61e1          MOV      r1,#0x708
000084  4618              MOV      r0,r3
000086  f7fffffe          BL       Motorun
;;;260    	Valve(CloseValve);
00008a  4638              MOV      r0,r7
00008c  f7fffffe          BL       Valve
;;;261    	Valve(170);
000090  20aa              MOVS     r0,#0xaa
000092  f7fffffe          BL       Valve
;;;262    	bsp_DelayMS(22);
000096  2016              MOVS     r0,#0x16
000098  f7fffffe          BL       bsp_DelayMS
;;;263    	Valve(151);
00009c  2097              MOVS     r0,#0x97
00009e  f7fffffe          BL       Valve
;;;264    	bsp_DelayMS(2);
0000a2  2002              MOVS     r0,#2
0000a4  f7fffffe          BL       bsp_DelayMS
;;;265    	Motorun(0,1800,BACKWARD,0,     30,60,8,20,      30,6,20,200,	 0, 0, 0);  //打气，底气清洗
0000a8  2000              MOVS     r0,#0
0000aa  23c8              MOVS     r3,#0xc8
0000ac  e9cd3007          STRD     r3,r0,[sp,#0x1c]
0000b0  9009              STR      r0,[sp,#0x24]
0000b2  900a              STR      r0,[sp,#0x28]
0000b4  2014              MOVS     r0,#0x14
0000b6  2106              MOVS     r1,#6
0000b8  221e              MOVS     r2,#0x1e
0000ba  e9cd0203          STRD     r0,r2,[sp,#0xc]
0000be  e9cd1005          STRD     r1,r0,[sp,#0x14]
0000c2  2008              MOVS     r0,#8
0000c4  213c              MOVS     r1,#0x3c
0000c6  2300              MOVS     r3,#0
0000c8  e9cd2100          STRD     r2,r1,[sp,#0]
0000cc  9002              STR      r0,[sp,#8]
0000ce  2201              MOVS     r2,#1
0000d0  f44f61e1          MOV      r1,#0x708
0000d4  4618              MOV      r0,r3
0000d6  f7fffffe          BL       Motorun
;;;266    	Valve(171);
0000da  20ab              MOVS     r0,#0xab
0000dc  f7fffffe          BL       Valve
;;;267    	Valve(OpenValve);
0000e0  4630              MOV      r0,r6
0000e2  f7fffffe          BL       Valve
;;;268    	bsp_DelayMS(2);
0000e6  2002              MOVS     r0,#2
0000e8  f7fffffe          BL       bsp_DelayMS
;;;269    	Valve(150);
0000ec  2096              MOVS     r0,#0x96
0000ee  f7fffffe          BL       Valve
;;;270    	bsp_DelayMS(27);	
0000f2  201b              MOVS     r0,#0x1b
0000f4  f7fffffe          BL       bsp_DelayMS
;;;271    	
;;;272      	Motorun(0,T,FORWARD,0,      30,60,8,20,      30,6,20,0, 	 0, 0, 0);   //抽气，满行程
0000f8  484e              LDR      r0,|L3.564|
0000fa  ed901b0e          VLDR     d1,[r0,#0x38]
0000fe  eeb00a41          VMOV.F32 s0,s2
000102  eef00a61          VMOV.F32 s1,s3
000106  ec510b10          VMOV     r0,r1,d0
00010a  f7fffffe          BL       __aeabi_d2uiz
00010e  fa1ff880          UXTH     r8,r0
000112  2000              MOVS     r0,#0
000114  9007              STR      r0,[sp,#0x1c]
000116  9008              STR      r0,[sp,#0x20]
000118  9009              STR      r0,[sp,#0x24]
00011a  900a              STR      r0,[sp,#0x28]
00011c  2014              MOVS     r0,#0x14
00011e  2106              MOVS     r1,#6
000120  221e              MOVS     r2,#0x1e
000122  e9cd0203          STRD     r0,r2,[sp,#0xc]
000126  e9cd1005          STRD     r1,r0,[sp,#0x14]
00012a  2008              MOVS     r0,#8
00012c  213c              MOVS     r1,#0x3c
00012e  2300              MOVS     r3,#0
000130  e9cd2100          STRD     r2,r1,[sp,#0]
000134  9002              STR      r0,[sp,#8]
000136  461a              MOV      r2,r3
000138  4641              MOV      r1,r8
00013a  4618              MOV      r0,r3
00013c  f7fffffe          BL       Motorun
;;;273    	
;;;274    	bsp_DelayMS(1532);
000140  f24050fc          MOV      r0,#0x5fc
000144  f7fffffe          BL       bsp_DelayMS
;;;275    	
;;;276    	Valve(CloseValve);
000148  4638              MOV      r0,r7
00014a  f7fffffe          BL       Valve
;;;277    	bsp_DelayMS(25);
00014e  2019              MOVS     r0,#0x19
000150  f7fffffe          BL       bsp_DelayMS
;;;278    	Valve(170);
000154  20aa              MOVS     r0,#0xaa
000156  f7fffffe          BL       Valve
;;;279    	Valve(151);
00015a  2097              MOVS     r0,#0x97
00015c  f7fffffe          BL       Valve
;;;280    	bsp_DelayMS(2);	
000160  2002              MOVS     r0,#2
000162  f7fffffe          BL       bsp_DelayMS
;;;281    	Motorun(0, m,  BACKWARD,0,     30,30,0,0,      30,0,0,0,	 	 0, 0, 0);  //反推m个脉冲  ,速度4~5r/s
000166  2000              MOVS     r0,#0
000168  9007              STR      r0,[sp,#0x1c]
00016a  9008              STR      r0,[sp,#0x20]
00016c  9009              STR      r0,[sp,#0x24]
00016e  221e              MOVS     r2,#0x1e
000170  900a              STR      r0,[sp,#0x28]
000172  e9cd0203          STRD     r0,r2,[sp,#0xc]
000176  9005              STR      r0,[sp,#0x14]
000178  9200              STR      r2,[sp,#0]
00017a  9006              STR      r0,[sp,#0x18]
00017c  2300              MOVS     r3,#0
00017e  e9cd2001          STRD     r2,r0,[sp,#4]
000182  2201              MOVS     r2,#1
000184  4629              MOV      r1,r5
000186  4618              MOV      r0,r3
000188  f7fffffe          BL       Motorun
;;;282    	bsp_DelayMS(1024);
00018c  f44f6080          MOV      r0,#0x400
000190  f7fffffe          BL       bsp_DelayMS
;;;283    	Valve(161);
000194  20a1              MOVS     r0,#0xa1
000196  f7fffffe          BL       Valve
;;;284    	bsp_DelayMS(54);
00019a  2036              MOVS     r0,#0x36
00019c  f7fffffe          BL       bsp_DelayMS
;;;285    	Motorun(1,T-m,BACKWARD,0,   20,30,1,20, 20,5,50,200	, 0, 0, 0);  //打气至底
0001a0  4628              MOV      r0,r5
0001a2  f7fffffe          BL       __aeabi_ui2d
0001a6  ec410b19          VMOV     d9,r0,r1
0001aa  4822              LDR      r0,|L3.564|
0001ac  ed901b0e          VLDR     d1,[r0,#0x38]
0001b0  eeb00a41          VMOV.F32 s0,s2
0001b4  eef00a61          VMOV.F32 s1,s3
0001b8  ec532b10          VMOV     r2,r3,d0
0001bc  ec510b19          VMOV     r0,r1,d9
0001c0  f7fffffe          BL       __aeabi_drsub
0001c4  ec410b18          VMOV     d8,r0,r1
0001c8  f7fffffe          BL       __aeabi_d2uiz
0001cc  fa1ff880          UXTH     r8,r0
0001d0  2000              MOVS     r0,#0
0001d2  23c8              MOVS     r3,#0xc8
0001d4  e9cd3007          STRD     r3,r0,[sp,#0x1c]
0001d8  9009              STR      r0,[sp,#0x24]
0001da  900a              STR      r0,[sp,#0x28]
0001dc  2032              MOVS     r0,#0x32
0001de  2105              MOVS     r1,#5
0001e0  2214              MOVS     r2,#0x14
0001e2  9203              STR      r2,[sp,#0xc]
0001e4  e9cd2104          STRD     r2,r1,[sp,#0x10]
0001e8  9006              STR      r0,[sp,#0x18]
0001ea  2001              MOVS     r0,#1
0001ec  211e              MOVS     r1,#0x1e
0001ee  2300              MOVS     r3,#0
0001f0  e9cd2100          STRD     r2,r1,[sp,#0]
0001f4  9002              STR      r0,[sp,#8]
0001f6  4602              MOV      r2,r0
0001f8  4641              MOV      r1,r8
0001fa  f7fffffe          BL       Motorun
;;;286    	bsp_DelayMS(480);
0001fe  f44f70f0          MOV      r0,#0x1e0
000202  f7fffffe          BL       bsp_DelayMS
;;;287    	Valve(150);
000206  2096              MOVS     r0,#0x96
000208  f7fffffe          BL       Valve
;;;288    
;;;289    	bsp_DelayMS(1362);         
00020c  f2405052          MOV      r0,#0x552
000210  f7fffffe          BL       bsp_DelayMS
;;;290        //转换发送数据
;;;291    	AK_Conv(); Valve(151);
000214  f7fffffe          BL       AK_Conv
000218  2097              MOVS     r0,#0x97
00021a  f7fffffe          BL       Valve
;;;292    	Valve(160);//排气  
00021e  20a0              MOVS     r0,#0xa0
000220  f7fffffe          BL       Valve
;;;293    	bsp_DelayMS(43);
000224  202b              MOVS     r0,#0x2b
000226  f7fffffe          BL       bsp_DelayMS
;;;294    }
00022a  b00c              ADD      sp,sp,#0x30
00022c  ecbd8b04          VPOP     {d8-d9}
000230  e8bd81f0          POP      {r4-r8,pc}
;;;295    void Sample(u8 Pnum,u16 pulse,double percent,u8 t)
                          ENDP

                  |L3.564|
                          DCD      m_lCf

                          AREA ||i.ChannelMeas||, CODE, READONLY, ALIGN=2

                  ChannelMeas PROC
;;;651    }
;;;652    void ChannelMeas(u8 Pnum)
000000  b501              PUSH     {r0,lr}
;;;653    {
000002  b096              SUB      sp,sp,#0x58
;;;654        u8 Pno=Pnum%10;
000004  210a              MOVS     r1,#0xa
000006  9816              LDR      r0,[sp,#0x58]
000008  fb90f2f1          SDIV     r2,r0,r1
00000c  fb010012          MLS      r0,r1,r2,r0
000010  b2c0              UXTB     r0,r0
000012  9014              STR      r0,[sp,#0x50]
;;;655        Pnum = (u8)(Pnum/10);
000014  9816              LDR      r0,[sp,#0x58]
000016  fb90f0f1          SDIV     r0,r0,r1
00001a  b2c0              UXTB     r0,r0
00001c  9016              STR      r0,[sp,#0x58]
;;;656        switch(Pno)
00001e  9814              LDR      r0,[sp,#0x50]
000020  280a              CMP      r0,#0xa
000022  d27d              BCS      |L4.288|
000024  e8dff000          TBB      [pc,r0]
000028  7c0510fb          DCB      0x7c,0x05,0x10,0xfb
00002c  f9f8f7f6          DCB      0xf9,0xf8,0xf7,0xf6
000030  f5f4              DCB      0xf5,0xf4
;;;657        {
;;;658        case	1:
;;;659            AirFirst();
000032  f7fffffe          BL       AirFirst
;;;660            Intensitys[0]=Intensity1;
000036  48fe              LDR      r0,|L4.1072|
000038  6800              LDR      r0,[r0,#0]  ; Intensity1
00003a  49fe              LDR      r1,|L4.1076|
00003c  6008              STR      r0,[r1,#0]  ; Intensitys
;;;661            Intensitys[1]=Intensity2;
00003e  48fe              LDR      r0,|L4.1080|
000040  6801              LDR      r1,[r0,#0]  ; Intensity2
000042  48fc              LDR      r0,|L4.1076|
000044  6041              STR      r1,[r0,#4]  ; Intensitys
                  |L4.70|
;;;662            break;
000046  e3fd              B        |L4.2116|
;;;663        case 	2:
;;;664            BaseFirst(Pnum,m);
000048  48fc              LDR      r0,|L4.1084|
00004a  8800              LDRH     r0,[r0,#0]  ; m
00004c  b280              UXTH     r0,r0
00004e  4601              MOV      r1,r0
000050  9013              STR      r0,[sp,#0x4c]
000052  9816              LDR      r0,[sp,#0x58]
000054  f7fffffe          BL       BaseFirst
;;;665            if(m_bMeasureBreak==1)
000058  48f9              LDR      r0,|L4.1088|
00005a  7800              LDRB     r0,[r0,#0]  ; m_bMeasureBreak
00005c  2801              CMP      r0,#1
00005e  d100              BNE      |L4.98|
;;;666                break;
000060  e7f1              B        |L4.70|
                  |L4.98|
;;;667            Intensitys[2]=Intensity1;
000062  48f3              LDR      r0,|L4.1072|
000064  6800              LDR      r0,[r0,#0]  ; Intensity1
000066  49f3              LDR      r1,|L4.1076|
000068  6088              STR      r0,[r1,#8]  ; Intensitys
;;;668            Intensitys[3]=Intensity2;
00006a  48f3              LDR      r0,|L4.1080|
00006c  6800              LDR      r0,[r0,#0]  ; Intensity2
00006e  60c8              STR      r0,[r1,#0xc]  ; Intensitys
;;;669            C12BABS = -log10((float)Intensitys[2] / ((float)Intensitys[0]));
000070  4608              MOV      r0,r1
000072  ed900a02          VLDR     s0,[r0,#8]
000076  eef80a40          VCVT.F32.U32 s1,s0
00007a  ed900a00          VLDR     s0,[r0,#0]
00007e  eeb81a40          VCVT.F32.U32 s2,s0
000082  ee800a81          VDIV.F32 s0,s1,s2
000086  ed8d0a0f          VSTR     s0,[sp,#0x3c]
00008a  980f              LDR      r0,[sp,#0x3c]
00008c  f7fffffe          BL       __aeabi_f2d
000090  e9cd0110          STRD     r0,r1,[sp,#0x40]
000094  ed9d0b10          VLDR     d0,[sp,#0x40]
000098  f7fffffe          BL       __hardfp_log10
00009c  ed8d0b12          VSTR     d0,[sp,#0x48]
0000a0  ed9d0b12          VLDR     d0,[sp,#0x48]
0000a4  ec510b10          VMOV     r0,r1,d0
0000a8  f7fffffe          BL       __aeabi_dneg
0000ac  4ae5              LDR      r2,|L4.1092|
0000ae  c203              STM      r2!,{r0,r1}
;;;670            m_lC12B = ((((m_lCfC12[5] * C12BABS + m_lCfC12[4]) * C12BABS + m_lCfC12[3]) * C12BABS + m_lCfC12[2]) * C12BABS + m_lCfC12[1]) * C12BABS + m_lCfC12[0];
0000b0  48e5              LDR      r0,|L4.1096|
0000b2  ed900b0a          VLDR     d0,[r0,#0x28]
0000b6  ed8d0b00          VSTR     d0,[sp,#0]
0000ba  48e2              LDR      r0,|L4.1092|
0000bc  ed900b00          VLDR     d0,[r0,#0]
0000c0  ec532b10          VMOV     r2,r3,d0
0000c4  ed9d0b00          VLDR     d0,[sp,#0]
0000c8  ec510b10          VMOV     r0,r1,d0
0000cc  f7fffffe          BL       __aeabi_dmul
0000d0  e9cd0102          STRD     r0,r1,[sp,#8]
0000d4  48dc              LDR      r0,|L4.1096|
0000d6  ed900b08          VLDR     d0,[r0,#0x20]
0000da  ed8d0b00          VSTR     d0,[sp,#0]
0000de  ed9d0b00          VLDR     d0,[sp,#0]
0000e2  ec532b10          VMOV     r2,r3,d0
0000e6  ed9d0b02          VLDR     d0,[sp,#8]
0000ea  ec510b10          VMOV     r0,r1,d0
0000ee  f7fffffe          BL       __aeabi_dadd
0000f2  e9cd0104          STRD     r0,r1,[sp,#0x10]
0000f6  48d3              LDR      r0,|L4.1092|
0000f8  ed900b00          VLDR     d0,[r0,#0]
0000fc  ec532b10          VMOV     r2,r3,d0
000100  ed9d0b04          VLDR     d0,[sp,#0x10]
000104  ec510b10          VMOV     r0,r1,d0
000108  f7fffffe          BL       __aeabi_dmul
00010c  e9cd0106          STRD     r0,r1,[sp,#0x18]
000110  48cd              LDR      r0,|L4.1096|
000112  ed900b06          VLDR     d0,[r0,#0x18]
000116  ed8d0b04          VSTR     d0,[sp,#0x10]
00011a  ed9d0b04          VLDR     d0,[sp,#0x10]
00011e  e000              B        |L4.290|
                  |L4.288|
000120  e3fc              B        |L4.2332|
                  |L4.290|
000122  ec532b10          VMOV     r2,r3,d0
000126  ed9d0b06          VLDR     d0,[sp,#0x18]
00012a  ec510b10          VMOV     r0,r1,d0
00012e  f7fffffe          BL       __aeabi_dadd
000132  e9cd0108          STRD     r0,r1,[sp,#0x20]
000136  48c3              LDR      r0,|L4.1092|
000138  ed900b00          VLDR     d0,[r0,#0]
00013c  ec532b10          VMOV     r2,r3,d0
000140  ed9d0b08          VLDR     d0,[sp,#0x20]
000144  ec510b10          VMOV     r0,r1,d0
000148  f7fffffe          BL       __aeabi_dmul
00014c  e9cd010a          STRD     r0,r1,[sp,#0x28]
000150  48bd              LDR      r0,|L4.1096|
000152  ed900b04          VLDR     d0,[r0,#0x10]
000156  ed8d0b08          VSTR     d0,[sp,#0x20]
00015a  ed9d0b08          VLDR     d0,[sp,#0x20]
00015e  ec532b10          VMOV     r2,r3,d0
000162  ed9d0b0a          VLDR     d0,[sp,#0x28]
000166  ec510b10          VMOV     r0,r1,d0
00016a  f7fffffe          BL       __aeabi_dadd
00016e  e9cd010c          STRD     r0,r1,[sp,#0x30]
000172  48b4              LDR      r0,|L4.1092|
000174  ed900b00          VLDR     d0,[r0,#0]
000178  ec532b10          VMOV     r2,r3,d0
00017c  ed9d0b0c          VLDR     d0,[sp,#0x30]
000180  ec510b10          VMOV     r0,r1,d0
000184  f7fffffe          BL       __aeabi_dmul
000188  e9cd010e          STRD     r0,r1,[sp,#0x38]
00018c  48ae              LDR      r0,|L4.1096|
00018e  ed900b02          VLDR     d0,[r0,#8]
000192  ed8d0b0c          VSTR     d0,[sp,#0x30]
000196  ed9d0b0c          VLDR     d0,[sp,#0x30]
00019a  ec532b10          VMOV     r2,r3,d0
00019e  ed9d0b0e          VLDR     d0,[sp,#0x38]
0001a2  ec510b10          VMOV     r0,r1,d0
0001a6  f7fffffe          BL       __aeabi_dadd
0001aa  e9cd0110          STRD     r0,r1,[sp,#0x40]
0001ae  48a5              LDR      r0,|L4.1092|
0001b0  ed900b00          VLDR     d0,[r0,#0]
0001b4  ec532b10          VMOV     r2,r3,d0
0001b8  ed9d0b10          VLDR     d0,[sp,#0x40]
0001bc  ec510b10          VMOV     r0,r1,d0
0001c0  f7fffffe          BL       __aeabi_dmul
0001c4  e9cd0112          STRD     r0,r1,[sp,#0x48]
0001c8  489f              LDR      r0,|L4.1096|
0001ca  ed900b00          VLDR     d0,[r0,#0]
0001ce  ed8d0b10          VSTR     d0,[sp,#0x40]
0001d2  ed9d0b10          VLDR     d0,[sp,#0x40]
0001d6  ec532b10          VMOV     r2,r3,d0
0001da  ed9d0b12          VLDR     d0,[sp,#0x48]
0001de  ec510b10          VMOV     r0,r1,d0
0001e2  f7fffffe          BL       __aeabi_dadd
0001e6  4a99              LDR      r2,|L4.1100|
0001e8  c203              STM      r2!,{r0,r1}
;;;671            if(m_bIgnoreConcentrationLow==0)
0001ea  4899              LDR      r0,|L4.1104|
0001ec  7800              LDRB     r0,[r0,#0]  ; m_bIgnoreConcentrationLow
0001ee  b970              CBNZ     r0,|L4.526|
;;;672            {
;;;673    					if(m_lC12B<0.5)
0001f0  ed9f0b98          VLDR     d0,|L4.1108|
0001f4  ec532b10          VMOV     r2,r3,d0
0001f8  4894              LDR      r0,|L4.1100|
0001fa  ed900b00          VLDR     d0,[r0,#0]
0001fe  ec510b10          VMOV     r0,r1,d0
000202  f7fffffe          BL       __aeabi_cdcmple
000206  d202              BCS      |L4.526|
;;;674    					{
;;;675    						m_bMeasureBreak=2;//底气浓度过低，中止测量
000208  2002              MOVS     r0,#2
00020a  498d              LDR      r1,|L4.1088|
00020c  7008              STRB     r0,[r1,#0]
                  |L4.526|
;;;676    					}
;;;677            }
;;;678            break;
00020e  e319              B        |L4.2116|
000210  e3f4              B        |L4.2556|
000212  e3f4              B        |L4.2558|
000214  e3f4              B        |L4.2560|
000216  e3f4              B        |L4.2562|
000218  e0ee              B        |L4.1016|
00021a  e00a              B        |L4.562|
00021c  e7ff              B        |L4.542|
                  |L4.542|
;;;679        case 	3:
;;;680            AirFirst();
00021e  f7fffffe          BL       AirFirst
;;;681            Intensitys[4]=Intensity1;
000222  4883              LDR      r0,|L4.1072|
000224  6800              LDR      r0,[r0,#0]  ; Intensity1
000226  4983              LDR      r1,|L4.1076|
000228  6108              STR      r0,[r1,#0x10]  ; Intensitys
;;;682            Intensitys[5]=Intensity2;
00022a  4883              LDR      r0,|L4.1080|
00022c  6800              LDR      r0,[r0,#0]  ; Intensity2
00022e  6148              STR      r0,[r1,#0x14]  ; Intensitys
;;;683            break;
000230  e308              B        |L4.2116|
                  |L4.562|
;;;684        case 	4:
;;;685            SampleFirst(Pnum,m);
000232  4882              LDR      r0,|L4.1084|
000234  8800              LDRH     r0,[r0,#0]  ; m
000236  b280              UXTH     r0,r0
000238  4601              MOV      r1,r0
00023a  9013              STR      r0,[sp,#0x4c]
00023c  9816              LDR      r0,[sp,#0x58]
00023e  f7fffffe          BL       SampleFirst
;;;686            if(m_bMeasureBreak==1)
000242  487f              LDR      r0,|L4.1088|
000244  7800              LDRB     r0,[r0,#0]  ; m_bMeasureBreak
000246  2801              CMP      r0,#1
000248  d100              BNE      |L4.588|
;;;687                break;
00024a  e2fb              B        |L4.2116|
                  |L4.588|
;;;688            Intensitys[6]=Intensity1;
00024c  4878              LDR      r0,|L4.1072|
00024e  6800              LDR      r0,[r0,#0]  ; Intensity1
000250  4978              LDR      r1,|L4.1076|
000252  6188              STR      r0,[r1,#0x18]  ; Intensitys
;;;689            Intensitys[7]=Intensity2;
000254  4878              LDR      r0,|L4.1080|
000256  6800              LDR      r0,[r0,#0]  ; Intensity2
000258  61c8              STR      r0,[r1,#0x1c]  ; Intensitys
;;;690            C12SABS = -log10((float)Intensitys[6] /( (float)Intensitys[4]));
00025a  4608              MOV      r0,r1
00025c  ed900a06          VLDR     s0,[r0,#0x18]
000260  eef80a40          VCVT.F32.U32 s1,s0
000264  ed900a04          VLDR     s0,[r0,#0x10]
000268  eeb81a40          VCVT.F32.U32 s2,s0
00026c  ee800a81          VDIV.F32 s0,s1,s2
000270  ed8d0a0f          VSTR     s0,[sp,#0x3c]
000274  980f              LDR      r0,[sp,#0x3c]
000276  f7fffffe          BL       __aeabi_f2d
00027a  e9cd0110          STRD     r0,r1,[sp,#0x40]
00027e  ed9d0b10          VLDR     d0,[sp,#0x40]
000282  f7fffffe          BL       __hardfp_log10
000286  ed8d0b12          VSTR     d0,[sp,#0x48]
00028a  ed9d0b12          VLDR     d0,[sp,#0x48]
00028e  ec510b10          VMOV     r0,r1,d0
000292  f7fffffe          BL       __aeabi_dneg
000296  4a71              LDR      r2,|L4.1116|
000298  c203              STM      r2!,{r0,r1}
;;;691            m_lC12S = ((((m_lCfC12[5] * C12SABS + m_lCfC12[4]) * C12SABS + m_lCfC12[3]) * C12SABS + m_lCfC12[2]) * C12SABS + m_lCfC12[1]) * C12SABS + m_lCfC12[0];
00029a  486b              LDR      r0,|L4.1096|
00029c  ed900b0a          VLDR     d0,[r0,#0x28]
0002a0  ed8d0b00          VSTR     d0,[sp,#0]
0002a4  486d              LDR      r0,|L4.1116|
0002a6  ed900b00          VLDR     d0,[r0,#0]
0002aa  ec532b10          VMOV     r2,r3,d0
0002ae  ed9d0b00          VLDR     d0,[sp,#0]
0002b2  ec510b10          VMOV     r0,r1,d0
0002b6  f7fffffe          BL       __aeabi_dmul
0002ba  e9cd0102          STRD     r0,r1,[sp,#8]
0002be  4862              LDR      r0,|L4.1096|
0002c0  ed900b08          VLDR     d0,[r0,#0x20]
0002c4  ed8d0b00          VSTR     d0,[sp,#0]
0002c8  ed9d0b00          VLDR     d0,[sp,#0]
0002cc  ec532b10          VMOV     r2,r3,d0
0002d0  ed9d0b02          VLDR     d0,[sp,#8]
0002d4  ec510b10          VMOV     r0,r1,d0
0002d8  f7fffffe          BL       __aeabi_dadd
0002dc  e9cd0104          STRD     r0,r1,[sp,#0x10]
0002e0  485e              LDR      r0,|L4.1116|
0002e2  ed900b00          VLDR     d0,[r0,#0]
0002e6  ec532b10          VMOV     r2,r3,d0
0002ea  ed9d0b04          VLDR     d0,[sp,#0x10]
0002ee  ec510b10          VMOV     r0,r1,d0
0002f2  f7fffffe          BL       __aeabi_dmul
0002f6  e9cd0106          STRD     r0,r1,[sp,#0x18]
0002fa  4853              LDR      r0,|L4.1096|
0002fc  ed900b06          VLDR     d0,[r0,#0x18]
000300  ed8d0b04          VSTR     d0,[sp,#0x10]
000304  ed9d0b04          VLDR     d0,[sp,#0x10]
000308  ec532b10          VMOV     r2,r3,d0
00030c  ed9d0b06          VLDR     d0,[sp,#0x18]
000310  ec510b10          VMOV     r0,r1,d0
000314  f7fffffe          BL       __aeabi_dadd
000318  e9cd0108          STRD     r0,r1,[sp,#0x20]
00031c  484f              LDR      r0,|L4.1116|
00031e  ed900b00          VLDR     d0,[r0,#0]
000322  ec532b10          VMOV     r2,r3,d0
000326  ed9d0b08          VLDR     d0,[sp,#0x20]
00032a  ec510b10          VMOV     r0,r1,d0
00032e  f7fffffe          BL       __aeabi_dmul
000332  e9cd010a          STRD     r0,r1,[sp,#0x28]
000336  4844              LDR      r0,|L4.1096|
000338  ed900b04          VLDR     d0,[r0,#0x10]
00033c  ed8d0b08          VSTR     d0,[sp,#0x20]
000340  ed9d0b08          VLDR     d0,[sp,#0x20]
000344  ec532b10          VMOV     r2,r3,d0
000348  ed9d0b0a          VLDR     d0,[sp,#0x28]
00034c  ec510b10          VMOV     r0,r1,d0
000350  f7fffffe          BL       __aeabi_dadd
000354  e9cd010c          STRD     r0,r1,[sp,#0x30]
000358  4840              LDR      r0,|L4.1116|
00035a  ed900b00          VLDR     d0,[r0,#0]
00035e  ec532b10          VMOV     r2,r3,d0
000362  ed9d0b0c          VLDR     d0,[sp,#0x30]
000366  ec510b10          VMOV     r0,r1,d0
00036a  f7fffffe          BL       __aeabi_dmul
00036e  e9cd010e          STRD     r0,r1,[sp,#0x38]
000372  4835              LDR      r0,|L4.1096|
000374  ed900b02          VLDR     d0,[r0,#8]
000378  ed8d0b0c          VSTR     d0,[sp,#0x30]
00037c  ed9d0b0c          VLDR     d0,[sp,#0x30]
000380  ec532b10          VMOV     r2,r3,d0
000384  ed9d0b0e          VLDR     d0,[sp,#0x38]
000388  ec510b10          VMOV     r0,r1,d0
00038c  f7fffffe          BL       __aeabi_dadd
000390  e9cd0110          STRD     r0,r1,[sp,#0x40]
000394  4831              LDR      r0,|L4.1116|
000396  ed900b00          VLDR     d0,[r0,#0]
00039a  ec532b10          VMOV     r2,r3,d0
00039e  ed9d0b10          VLDR     d0,[sp,#0x40]
0003a2  ec510b10          VMOV     r0,r1,d0
0003a6  f7fffffe          BL       __aeabi_dmul
0003aa  e9cd0112          STRD     r0,r1,[sp,#0x48]
0003ae  4826              LDR      r0,|L4.1096|
0003b0  ed900b00          VLDR     d0,[r0,#0]
0003b4  ed8d0b10          VSTR     d0,[sp,#0x40]
0003b8  ed9d0b10          VLDR     d0,[sp,#0x40]
0003bc  ec532b10          VMOV     r2,r3,d0
0003c0  ed9d0b12          VLDR     d0,[sp,#0x48]
0003c4  ec510b10          VMOV     r0,r1,d0
0003c8  f7fffffe          BL       __aeabi_dadd
0003cc  4a24              LDR      r2,|L4.1120|
0003ce  c203              STM      r2!,{r0,r1}
;;;692            if(m_bIgnoreConcentrationLow==0)
0003d0  481f              LDR      r0,|L4.1104|
0003d2  7800              LDRB     r0,[r0,#0]  ; m_bIgnoreConcentrationLow
0003d4  b978              CBNZ     r0,|L4.1014|
;;;693            {
;;;694    					if(m_lC12S<0.5)
0003d6  ed9f0b1f          VLDR     d0,|L4.1108|
0003da  ec532b10          VMOV     r2,r3,d0
0003de  4820              LDR      r0,|L4.1120|
0003e0  ed900b00          VLDR     d0,[r0,#0]
0003e4  ec510b10          VMOV     r0,r1,d0
0003e8  f7fffffe          BL       __aeabi_cdcmple
0003ec  d203              BCS      |L4.1014|
;;;695    					{
;;;696    						m_bMeasureBreak=3;//样气浓度过低，中止测量
0003ee  2003              MOVS     r0,#3
0003f0  4913              LDR      r1,|L4.1088|
0003f2  7008              STRB     r0,[r1,#0]
;;;697    						break;	 
0003f4  e3af              B        |L4.2902|
                  |L4.1014|
;;;698    					}
;;;699            }
;;;700            break;
0003f6  e3ae              B        |L4.2902|
                  |L4.1016|
;;;701        case 	5:
;;;702            Air();
0003f8  f7fffffe          BL       Air
;;;703            Intensitys[8]=Intensity1;
0003fc  480c              LDR      r0,|L4.1072|
0003fe  6800              LDR      r0,[r0,#0]  ; Intensity1
000400  490c              LDR      r1,|L4.1076|
000402  6208              STR      r0,[r1,#0x20]  ; Intensitys
;;;704            Intensitys[9]=Intensity2;
000404  480c              LDR      r0,|L4.1080|
000406  6800              LDR      r0,[r0,#0]  ; Intensity2
000408  6248              STR      r0,[r1,#0x24]  ; Intensitys
;;;705    				C12BABS = -log10((float)Intensitys[2] / ((float)(Intensitys[4]* 0.5+Intensitys[0]*0.5)));
00040a  4608              MOV      r0,r1
00040c  6800              LDR      r0,[r0,#0]  ; Intensitys
00040e  9005              STR      r0,[sp,#0x14]
000410  f7fffffe          BL       __aeabi_ui2d
000414  ed9f0b0f          VLDR     d0,|L4.1108|
000418  ec532b10          VMOV     r2,r3,d0
00041c  e9cd0106          STRD     r0,r1,[sp,#0x18]
000420  ed9d0b06          VLDR     d0,[sp,#0x18]
000424  ec510b10          VMOV     r0,r1,d0
000428  f7fffffe          BL       __aeabi_dmul
00042c  e01a              B        |L4.1124|
00042e  0000              DCW      0x0000
                  |L4.1072|
                          DCD      Intensity1
                  |L4.1076|
                          DCD      Intensitys
                  |L4.1080|
                          DCD      Intensity2
                  |L4.1084|
                          DCD      m
                  |L4.1088|
                          DCD      m_bMeasureBreak
                  |L4.1092|
                          DCD      C12BABS
                  |L4.1096|
                          DCD      m_lCfC12
                  |L4.1100|
                          DCD      m_lC12B
                  |L4.1104|
                          DCD      m_bIgnoreConcentrationLow
                  |L4.1108|
000454  00000000          DCFD     0x3fe0000000000000 ; 0.5
000458  3fe00000
                  |L4.1116|
                          DCD      C12SABS
                  |L4.1120|
                          DCD      m_lC12S
                  |L4.1124|
000464  e9cd010a          STRD     r0,r1,[sp,#0x28]
000468  48fb              LDR      r0,|L4.2136|
00046a  6900              LDR      r0,[r0,#0x10]  ; Intensitys
00046c  9005              STR      r0,[sp,#0x14]
00046e  f7fffffe          BL       __aeabi_ui2d
000472  ed1f0b08          VLDR     d0,|L4.1108|
000476  ec532b10          VMOV     r2,r3,d0
00047a  e9cd0106          STRD     r0,r1,[sp,#0x18]
00047e  ed9d0b06          VLDR     d0,[sp,#0x18]
000482  ec510b10          VMOV     r0,r1,d0
000486  f7fffffe          BL       __aeabi_dmul
00048a  e9cd0108          STRD     r0,r1,[sp,#0x20]
00048e  ed9d0b0a          VLDR     d0,[sp,#0x28]
000492  ec532b10          VMOV     r2,r3,d0
000496  ed9d0b08          VLDR     d0,[sp,#0x20]
00049a  ec510b10          VMOV     r0,r1,d0
00049e  f7fffffe          BL       __aeabi_dadd
0004a2  e9cd010c          STRD     r0,r1,[sp,#0x30]
0004a6  ed9d0b0c          VLDR     d0,[sp,#0x30]
0004aa  ec510b10          VMOV     r0,r1,d0
0004ae  f7fffffe          BL       __aeabi_d2f
0004b2  ee000a10          VMOV     s0,r0
0004b6  48e8              LDR      r0,|L4.2136|
0004b8  edd00a02          VLDR     s1,[r0,#8]
0004bc  eeb81a60          VCVT.F32.U32 s2,s1
0004c0  eec10a00          VDIV.F32 s1,s2,s0
0004c4  edcd0a0f          VSTR     s1,[sp,#0x3c]
0004c8  980f              LDR      r0,[sp,#0x3c]
0004ca  f7fffffe          BL       __aeabi_f2d
0004ce  e9cd0110          STRD     r0,r1,[sp,#0x40]
0004d2  ed9d0b10          VLDR     d0,[sp,#0x40]
0004d6  f7fffffe          BL       __hardfp_log10
0004da  ed8d0b12          VSTR     d0,[sp,#0x48]
0004de  ed9d0b12          VLDR     d0,[sp,#0x48]
0004e2  ec510b10          VMOV     r0,r1,d0
0004e6  f7fffffe          BL       __aeabi_dneg
0004ea  4adc              LDR      r2,|L4.2140|
0004ec  c203              STM      r2!,{r0,r1}
;;;706    				m_lC12B = ((((m_lCfC12[5] * C12BABS + m_lCfC12[4]) * C12BABS + m_lCfC12[3]) * C12BABS + m_lCfC12[2]) * C12BABS + m_lCfC12[1]) * C12BABS + m_lCfC12[0];
0004ee  48dc              LDR      r0,|L4.2144|
0004f0  ed900b0a          VLDR     d0,[r0,#0x28]
0004f4  ed8d0b00          VSTR     d0,[sp,#0]
0004f8  48d8              LDR      r0,|L4.2140|
0004fa  ed900b00          VLDR     d0,[r0,#0]
0004fe  ec532b10          VMOV     r2,r3,d0
000502  ed9d0b00          VLDR     d0,[sp,#0]
000506  ec510b10          VMOV     r0,r1,d0
00050a  f7fffffe          BL       __aeabi_dmul
00050e  e9cd0102          STRD     r0,r1,[sp,#8]
000512  48d3              LDR      r0,|L4.2144|
000514  ed900b08          VLDR     d0,[r0,#0x20]
000518  ed8d0b00          VSTR     d0,[sp,#0]
00051c  ed9d0b00          VLDR     d0,[sp,#0]
000520  ec532b10          VMOV     r2,r3,d0
000524  ed9d0b02          VLDR     d0,[sp,#8]
000528  ec510b10          VMOV     r0,r1,d0
00052c  f7fffffe          BL       __aeabi_dadd
000530  e9cd0104          STRD     r0,r1,[sp,#0x10]
000534  48c9              LDR      r0,|L4.2140|
000536  ed900b00          VLDR     d0,[r0,#0]
00053a  ec532b10          VMOV     r2,r3,d0
00053e  ed9d0b04          VLDR     d0,[sp,#0x10]
000542  ec510b10          VMOV     r0,r1,d0
000546  f7fffffe          BL       __aeabi_dmul
00054a  e9cd0106          STRD     r0,r1,[sp,#0x18]
00054e  48c4              LDR      r0,|L4.2144|
000550  ed900b06          VLDR     d0,[r0,#0x18]
000554  ed8d0b04          VSTR     d0,[sp,#0x10]
000558  ed9d0b04          VLDR     d0,[sp,#0x10]
00055c  ec532b10          VMOV     r2,r3,d0
000560  ed9d0b06          VLDR     d0,[sp,#0x18]
000564  ec510b10          VMOV     r0,r1,d0
000568  f7fffffe          BL       __aeabi_dadd
00056c  e9cd0108          STRD     r0,r1,[sp,#0x20]
000570  48ba              LDR      r0,|L4.2140|
000572  ed900b00          VLDR     d0,[r0,#0]
000576  ec532b10          VMOV     r2,r3,d0
00057a  ed9d0b08          VLDR     d0,[sp,#0x20]
00057e  ec510b10          VMOV     r0,r1,d0
000582  f7fffffe          BL       __aeabi_dmul
000586  e9cd010a          STRD     r0,r1,[sp,#0x28]
00058a  48b5              LDR      r0,|L4.2144|
00058c  ed900b04          VLDR     d0,[r0,#0x10]
000590  ed8d0b08          VSTR     d0,[sp,#0x20]
000594  ed9d0b08          VLDR     d0,[sp,#0x20]
000598  ec532b10          VMOV     r2,r3,d0
00059c  ed9d0b0a          VLDR     d0,[sp,#0x28]
0005a0  ec510b10          VMOV     r0,r1,d0
0005a4  f7fffffe          BL       __aeabi_dadd
0005a8  e9cd010c          STRD     r0,r1,[sp,#0x30]
0005ac  48ab              LDR      r0,|L4.2140|
0005ae  ed900b00          VLDR     d0,[r0,#0]
0005b2  ec532b10          VMOV     r2,r3,d0
0005b6  ed9d0b0c          VLDR     d0,[sp,#0x30]
0005ba  ec510b10          VMOV     r0,r1,d0
0005be  f7fffffe          BL       __aeabi_dmul
0005c2  e9cd010e          STRD     r0,r1,[sp,#0x38]
0005c6  48a6              LDR      r0,|L4.2144|
0005c8  ed900b02          VLDR     d0,[r0,#8]
0005cc  ed8d0b0c          VSTR     d0,[sp,#0x30]
0005d0  ed9d0b0c          VLDR     d0,[sp,#0x30]
0005d4  ec532b10          VMOV     r2,r3,d0
0005d8  ed9d0b0e          VLDR     d0,[sp,#0x38]
0005dc  ec510b10          VMOV     r0,r1,d0
0005e0  f7fffffe          BL       __aeabi_dadd
0005e4  e9cd0110          STRD     r0,r1,[sp,#0x40]
0005e8  489c              LDR      r0,|L4.2140|
0005ea  ed900b00          VLDR     d0,[r0,#0]
0005ee  ec532b10          VMOV     r2,r3,d0
0005f2  ed9d0b10          VLDR     d0,[sp,#0x40]
0005f6  ec510b10          VMOV     r0,r1,d0
0005fa  f7fffffe          BL       __aeabi_dmul
0005fe  e9cd0112          STRD     r0,r1,[sp,#0x48]
000602  4897              LDR      r0,|L4.2144|
000604  ed900b00          VLDR     d0,[r0,#0]
000608  ed8d0b10          VSTR     d0,[sp,#0x40]
00060c  ed9d0b10          VLDR     d0,[sp,#0x40]
000610  ec532b10          VMOV     r2,r3,d0
000614  ed9d0b12          VLDR     d0,[sp,#0x48]
000618  ec510b10          VMOV     r0,r1,d0
00061c  f7fffffe          BL       __aeabi_dadd
000620  4a90              LDR      r2,|L4.2148|
000622  c203              STM      r2!,{r0,r1}
;;;707    
;;;708            C12SABS = -log10((float)Intensitys[6] /( (float)(Intensitys[4]*0.7+Intensitys[8]* 0.3)));
000624  488c              LDR      r0,|L4.2136|
000626  6a00              LDR      r0,[r0,#0x20]  ; Intensitys
000628  9005              STR      r0,[sp,#0x14]
00062a  f7fffffe          BL       __aeabi_ui2d
00062e  ed9f0b8e          VLDR     d0,|L4.2152|
000632  ec532b10          VMOV     r2,r3,d0
000636  e9cd0106          STRD     r0,r1,[sp,#0x18]
00063a  ed9d0b06          VLDR     d0,[sp,#0x18]
00063e  ec510b10          VMOV     r0,r1,d0
000642  f7fffffe          BL       __aeabi_dmul
000646  e9cd010a          STRD     r0,r1,[sp,#0x28]
00064a  4883              LDR      r0,|L4.2136|
00064c  6900              LDR      r0,[r0,#0x10]  ; Intensitys
00064e  9005              STR      r0,[sp,#0x14]
000650  f7fffffe          BL       __aeabi_ui2d
000654  ed9f0b86          VLDR     d0,|L4.2160|
000658  ec532b10          VMOV     r2,r3,d0
00065c  e9cd0106          STRD     r0,r1,[sp,#0x18]
000660  ed9d0b06          VLDR     d0,[sp,#0x18]
000664  ec510b10          VMOV     r0,r1,d0
000668  f7fffffe          BL       __aeabi_dmul
00066c  e9cd0108          STRD     r0,r1,[sp,#0x20]
000670  ed9d0b0a          VLDR     d0,[sp,#0x28]
000674  ec532b10          VMOV     r2,r3,d0
000678  ed9d0b08          VLDR     d0,[sp,#0x20]
00067c  ec510b10          VMOV     r0,r1,d0
000680  f7fffffe          BL       __aeabi_dadd
000684  e9cd010c          STRD     r0,r1,[sp,#0x30]
000688  ed9d0b0c          VLDR     d0,[sp,#0x30]
00068c  ec510b10          VMOV     r0,r1,d0
000690  f7fffffe          BL       __aeabi_d2f
000694  ee000a10          VMOV     s0,r0
000698  486f              LDR      r0,|L4.2136|
00069a  edd00a06          VLDR     s1,[r0,#0x18]
00069e  eeb81a60          VCVT.F32.U32 s2,s1
0006a2  eec10a00          VDIV.F32 s1,s2,s0
0006a6  edcd0a0f          VSTR     s1,[sp,#0x3c]
0006aa  980f              LDR      r0,[sp,#0x3c]
0006ac  f7fffffe          BL       __aeabi_f2d
0006b0  e9cd0110          STRD     r0,r1,[sp,#0x40]
0006b4  ed9d0b10          VLDR     d0,[sp,#0x40]
0006b8  f7fffffe          BL       __hardfp_log10
0006bc  ed8d0b12          VSTR     d0,[sp,#0x48]
0006c0  ed9d0b12          VLDR     d0,[sp,#0x48]
0006c4  ec510b10          VMOV     r0,r1,d0
0006c8  f7fffffe          BL       __aeabi_dneg
0006cc  4a6a              LDR      r2,|L4.2168|
0006ce  c203              STM      r2!,{r0,r1}
;;;709            m_lC12S = ((((m_lCfC12[5] * C12SABS + m_lCfC12[4]) * C12SABS + m_lCfC12[3]) * C12SABS + m_lCfC12[2]) * C12SABS + m_lCfC12[1]) * C12SABS + m_lCfC12[0];
0006d0  4863              LDR      r0,|L4.2144|
0006d2  ed900b0a          VLDR     d0,[r0,#0x28]
0006d6  ed8d0b00          VSTR     d0,[sp,#0]
0006da  4867              LDR      r0,|L4.2168|
0006dc  ed900b00          VLDR     d0,[r0,#0]
0006e0  ec532b10          VMOV     r2,r3,d0
0006e4  ed9d0b00          VLDR     d0,[sp,#0]
0006e8  ec510b10          VMOV     r0,r1,d0
0006ec  f7fffffe          BL       __aeabi_dmul
0006f0  e9cd0102          STRD     r0,r1,[sp,#8]
0006f4  485a              LDR      r0,|L4.2144|
0006f6  ed900b08          VLDR     d0,[r0,#0x20]
0006fa  ed8d0b00          VSTR     d0,[sp,#0]
0006fe  ed9d0b00          VLDR     d0,[sp,#0]
000702  ec532b10          VMOV     r2,r3,d0
000706  ed9d0b02          VLDR     d0,[sp,#8]
00070a  ec510b10          VMOV     r0,r1,d0
00070e  f7fffffe          BL       __aeabi_dadd
000712  e9cd0104          STRD     r0,r1,[sp,#0x10]
000716  4858              LDR      r0,|L4.2168|
000718  ed900b00          VLDR     d0,[r0,#0]
00071c  ec532b10          VMOV     r2,r3,d0
000720  ed9d0b04          VLDR     d0,[sp,#0x10]
000724  ec510b10          VMOV     r0,r1,d0
000728  f7fffffe          BL       __aeabi_dmul
00072c  e9cd0106          STRD     r0,r1,[sp,#0x18]
000730  484b              LDR      r0,|L4.2144|
000732  ed900b06          VLDR     d0,[r0,#0x18]
000736  ed8d0b04          VSTR     d0,[sp,#0x10]
00073a  ed9d0b04          VLDR     d0,[sp,#0x10]
00073e  ec532b10          VMOV     r2,r3,d0
000742  ed9d0b06          VLDR     d0,[sp,#0x18]
000746  ec510b10          VMOV     r0,r1,d0
00074a  f7fffffe          BL       __aeabi_dadd
00074e  e9cd0108          STRD     r0,r1,[sp,#0x20]
000752  4849              LDR      r0,|L4.2168|
000754  ed900b00          VLDR     d0,[r0,#0]
000758  ec532b10          VMOV     r2,r3,d0
00075c  ed9d0b08          VLDR     d0,[sp,#0x20]
000760  ec510b10          VMOV     r0,r1,d0
000764  f7fffffe          BL       __aeabi_dmul
000768  e9cd010a          STRD     r0,r1,[sp,#0x28]
00076c  483c              LDR      r0,|L4.2144|
00076e  ed900b04          VLDR     d0,[r0,#0x10]
000772  ed8d0b08          VSTR     d0,[sp,#0x20]
000776  ed9d0b08          VLDR     d0,[sp,#0x20]
00077a  ec532b10          VMOV     r2,r3,d0
00077e  ed9d0b0a          VLDR     d0,[sp,#0x28]
000782  ec510b10          VMOV     r0,r1,d0
000786  f7fffffe          BL       __aeabi_dadd
00078a  e9cd010c          STRD     r0,r1,[sp,#0x30]
00078e  483a              LDR      r0,|L4.2168|
000790  ed900b00          VLDR     d0,[r0,#0]
000794  ec532b10          VMOV     r2,r3,d0
000798  ed9d0b0c          VLDR     d0,[sp,#0x30]
00079c  ec510b10          VMOV     r0,r1,d0
0007a0  f7fffffe          BL       __aeabi_dmul
0007a4  e9cd010e          STRD     r0,r1,[sp,#0x38]
0007a8  482d              LDR      r0,|L4.2144|
0007aa  ed900b02          VLDR     d0,[r0,#8]
0007ae  ed8d0b0c          VSTR     d0,[sp,#0x30]
0007b2  ed9d0b0c          VLDR     d0,[sp,#0x30]
0007b6  ec532b10          VMOV     r2,r3,d0
0007ba  ed9d0b0e          VLDR     d0,[sp,#0x38]
0007be  ec510b10          VMOV     r0,r1,d0
0007c2  f7fffffe          BL       __aeabi_dadd
0007c6  e9cd0110          STRD     r0,r1,[sp,#0x40]
0007ca  482b              LDR      r0,|L4.2168|
0007cc  ed900b00          VLDR     d0,[r0,#0]
0007d0  ec532b10          VMOV     r2,r3,d0
0007d4  ed9d0b10          VLDR     d0,[sp,#0x40]
0007d8  ec510b10          VMOV     r0,r1,d0
0007dc  f7fffffe          BL       __aeabi_dmul
0007e0  e9cd0112          STRD     r0,r1,[sp,#0x48]
0007e4  481e              LDR      r0,|L4.2144|
0007e6  ed900b00          VLDR     d0,[r0,#0]
0007ea  ed8d0b10          VSTR     d0,[sp,#0x40]
0007ee  ed9d0b10          VLDR     d0,[sp,#0x40]
0007f2  ec532b10          VMOV     r2,r3,d0
0007f6  ed9d0b12          VLDR     d0,[sp,#0x48]
0007fa  ec510b10          VMOV     r0,r1,d0
0007fe  f7fffffe          BL       __aeabi_dadd
000802  4a1e              LDR      r2,|L4.2172|
000804  c203              STM      r2!,{r0,r1}
;;;710       
;;;711            if ((ABS(m_lC12B - m_lC12S) > 0.05)&&(m_mesureType==1||m_mesureType==4))
000806  481d              LDR      r0,|L4.2172|
000808  ed900b00          VLDR     d0,[r0,#0]
00080c  ec532b10          VMOV     r2,r3,d0
000810  4814              LDR      r0,|L4.2148|
000812  ed900b00          VLDR     d0,[r0,#0]
000816  ec510b10          VMOV     r0,r1,d0
00081a  f7fffffe          BL       __aeabi_dsub
00081e  ed9f0b18          VLDR     d0,|L4.2176|
000822  ec532b10          VMOV     r2,r3,d0
000826  e9cd0110          STRD     r0,r1,[sp,#0x40]
00082a  ed9d0b10          VLDR     d0,[sp,#0x40]
00082e  ec510b10          VMOV     r0,r1,d0
000832  f7fffffe          BL       __aeabi_cdrcmple
000836  d227              BCS      |L4.2184|
000838  4810              LDR      r0,|L4.2172|
00083a  ed900b00          VLDR     d0,[r0,#0]
00083e  ec532b10          VMOV     r2,r3,d0
000842  e000              B        |L4.2118|
                  |L4.2116|
000844  e187              B        |L4.2902|
                  |L4.2118|
000846  4807              LDR      r0,|L4.2148|
000848  ed900b00          VLDR     d0,[r0,#0]
00084c  ec510b10          VMOV     r0,r1,d0
000850  f7fffffe          BL       __aeabi_dsub
000854  e02c              B        |L4.2224|
000856  0000              DCW      0x0000
                  |L4.2136|
                          DCD      Intensitys
                  |L4.2140|
                          DCD      C12BABS
                  |L4.2144|
                          DCD      m_lCfC12
                  |L4.2148|
                          DCD      m_lC12B
                  |L4.2152|
000868  33333333          DCFD     0x3fd3333333333333 ; 0.29999999999999999
00086c  3fd33333
                  |L4.2160|
000870  66666666          DCFD     0x3fe6666666666666 ; 0.69999999999999996
000874  3fe66666
                  |L4.2168|
                          DCD      C12SABS
                  |L4.2172|
                          DCD      m_lC12S
                  |L4.2176|
000880  00000000          DCFD     0x0000000000000000 ; 0
000884  00000000
                  |L4.2184|
000888  48fe              LDR      r0,|L4.3204|
00088a  ed900b00          VLDR     d0,[r0,#0]
00088e  ec532b10          VMOV     r2,r3,d0
000892  48fd              LDR      r0,|L4.3208|
000894  ed900b00          VLDR     d0,[r0,#0]
000898  ec510b10          VMOV     r0,r1,d0
00089c  f7fffffe          BL       __aeabi_dsub
0008a0  e9cd0110          STRD     r0,r1,[sp,#0x40]
0008a4  ed9d0b10          VLDR     d0,[sp,#0x40]
0008a8  ec510b10          VMOV     r0,r1,d0
0008ac  f7fffffe          BL       __aeabi_dneg
                  |L4.2224|
0008b0  ed9f0bf6          VLDR     d0,|L4.3212|
0008b4  ec532b10          VMOV     r2,r3,d0
0008b8  e9cd0112          STRD     r0,r1,[sp,#0x48]
0008bc  ed9d0b12          VLDR     d0,[sp,#0x48]
0008c0  ec510b10          VMOV     r0,r1,d0
0008c4  f7fffffe          BL       __aeabi_cdrcmple
0008c8  d278              BCS      |L4.2492|
0008ca  48f2              LDR      r0,|L4.3220|
0008cc  7800              LDRB     r0,[r0,#0]  ; m_mesureType
0008ce  2801              CMP      r0,#1
0008d0  d003              BEQ      |L4.2266|
0008d2  48f0              LDR      r0,|L4.3220|
0008d4  7800              LDRB     r0,[r0,#0]  ; m_mesureType
0008d6  2804              CMP      r0,#4
0008d8  d170              BNE      |L4.2492|
                  |L4.2266|
;;;712            {
;;;713              m_bDilution = 1;
0008da  2001              MOVS     r0,#1
0008dc  49ee              LDR      r1,|L4.3224|
0008de  7008              STRB     r0,[r1,#0]
;;;714    					if(m_lC12B <2.2|| m_lC12S<2.2)
0008e0  ed9f0bee          VLDR     d0,|L4.3228|
0008e4  ec532b10          VMOV     r2,r3,d0
0008e8  48e7              LDR      r0,|L4.3208|
0008ea  ed900b00          VLDR     d0,[r0,#0]
0008ee  ec510b10          VMOV     r0,r1,d0
0008f2  f7fffffe          BL       __aeabi_cdcmple
0008f6  d30b              BCC      |L4.2320|
0008f8  ed9f0be8          VLDR     d0,|L4.3228|
0008fc  ec532b10          VMOV     r2,r3,d0
000900  48e0              LDR      r0,|L4.3204|
000902  ed900b00          VLDR     d0,[r0,#0]
000906  ec510b10          VMOV     r0,r1,d0
00090a  f7fffffe          BL       __aeabi_cdcmple
00090e  d206              BCS      |L4.2334|
                  |L4.2320|
;;;715    					{
;;;716    						Per = 0.900;
000910  ed9f0be4          VLDR     d0,|L4.3236|
000914  48e5              LDR      r0,|L4.3244|
000916  ed800b00          VSTR     d0,[r0,#0]
00091a  e023              B        |L4.2404|
                  |L4.2332|
00091c  e11a              B        |L4.2900|
                  |L4.2334|
;;;717    					}
;;;718    					else if(m_lC12B>4.0&& m_lC12S>4.0)
00091e  ed9f0be4          VLDR     d0,|L4.3248|
000922  ec532b10          VMOV     r2,r3,d0
000926  48d8              LDR      r0,|L4.3208|
000928  ed900b00          VLDR     d0,[r0,#0]
00092c  ec510b10          VMOV     r0,r1,d0
000930  f7fffffe          BL       __aeabi_cdrcmple
000934  d211              BCS      |L4.2394|
000936  ed9f0bde          VLDR     d0,|L4.3248|
00093a  ec532b10          VMOV     r2,r3,d0
00093e  48d1              LDR      r0,|L4.3204|
000940  ed900b00          VLDR     d0,[r0,#0]
000944  ec510b10          VMOV     r0,r1,d0
000948  f7fffffe          BL       __aeabi_cdrcmple
00094c  d205              BCS      |L4.2394|
;;;719    					{
;;;720    						Per = 0.750;
00094e  ed9f0bda          VLDR     d0,|L4.3256|
000952  48d6              LDR      r0,|L4.3244|
000954  ed800b00          VSTR     d0,[r0,#0]
000958  e004              B        |L4.2404|
                  |L4.2394|
;;;721    					}
;;;722    					else
;;;723    					{
;;;724    						Per = 0.800;
00095a  ed9f0bd9          VLDR     d0,|L4.3264|
00095e  48d3              LDR      r0,|L4.3244|
000960  ed800b00          VSTR     d0,[r0,#0]
                  |L4.2404|
;;;725    					}
;;;726    					if (m_lC12B > m_lC12S)
000964  48c7              LDR      r0,|L4.3204|
000966  ed900b00          VLDR     d0,[r0,#0]
00096a  ec532b10          VMOV     r2,r3,d0
00096e  48c6              LDR      r0,|L4.3208|
000970  ed900b00          VLDR     d0,[r0,#0]
000974  ec510b10          VMOV     r0,r1,d0
000978  f7fffffe          BL       __aeabi_cdrcmple
00097c  d21f              BCS      |L4.2494|
;;;727    					{
;;;728    							Percent =  m_lC12S / m_lC12B * Per ;
00097e  48c2              LDR      r0,|L4.3208|
000980  ed900b00          VLDR     d0,[r0,#0]
000984  ec532b10          VMOV     r2,r3,d0
000988  48be              LDR      r0,|L4.3204|
00098a  ed900b00          VLDR     d0,[r0,#0]
00098e  ec510b10          VMOV     r0,r1,d0
000992  f7fffffe          BL       __aeabi_ddiv
000996  e9cd0112          STRD     r0,r1,[sp,#0x48]
00099a  48c4              LDR      r0,|L4.3244|
00099c  ed900b00          VLDR     d0,[r0,#0]
0009a0  ec532b10          VMOV     r2,r3,d0
0009a4  ed9d0b12          VLDR     d0,[sp,#0x48]
0009a8  ec510b10          VMOV     r0,r1,d0
0009ac  f7fffffe          BL       __aeabi_dmul
0009b0  4ac5              LDR      r2,|L4.3272|
0009b2  c203              STM      r2!,{r0,r1}
;;;729    							m_bChanged = 1;
0009b4  2001              MOVS     r0,#1
0009b6  49c5              LDR      r1,|L4.3276|
0009b8  7008              STRB     r0,[r1,#0]
0009ba  e026              B        |L4.2570|
                  |L4.2492|
0009bc  e022              B        |L4.2564|
                  |L4.2494|
;;;730    					}
;;;731    					else   
;;;732    					{
;;;733    							Percent =  m_lC12B / m_lC12S * Per;
0009be  48b1              LDR      r0,|L4.3204|
0009c0  ed900b00          VLDR     d0,[r0,#0]
0009c4  ec532b10          VMOV     r2,r3,d0
0009c8  48af              LDR      r0,|L4.3208|
0009ca  ed900b00          VLDR     d0,[r0,#0]
0009ce  ec510b10          VMOV     r0,r1,d0
0009d2  f7fffffe          BL       __aeabi_ddiv
0009d6  e9cd0112          STRD     r0,r1,[sp,#0x48]
0009da  48b4              LDR      r0,|L4.3244|
0009dc  ed900b00          VLDR     d0,[r0,#0]
0009e0  ec532b10          VMOV     r2,r3,d0
0009e4  ed9d0b12          VLDR     d0,[sp,#0x48]
0009e8  ec510b10          VMOV     r0,r1,d0
0009ec  f7fffffe          BL       __aeabi_dmul
0009f0  4ab5              LDR      r2,|L4.3272|
0009f2  c203              STM      r2!,{r0,r1}
;;;734    							m_bChanged = 0;
0009f4  2000              MOVS     r0,#0
0009f6  49b5              LDR      r1,|L4.3276|
0009f8  7008              STRB     r0,[r1,#0]
0009fa  e006              B        |L4.2570|
                  |L4.2556|
0009fc  e092              B        |L4.2852|
                  |L4.2558|
0009fe  e050              B        |L4.2722|
                  |L4.2560|
000a00  e045              B        |L4.2702|
                  |L4.2562|
000a02  e003              B        |L4.2572|
                  |L4.2564|
;;;735    					}	             
;;;736    				}
;;;737    				else
;;;738    				{
;;;739    					m_bDilution = 0;
000a04  2000              MOVS     r0,#0
000a06  49a4              LDR      r1,|L4.3224|
000a08  7008              STRB     r0,[r1,#0]
                  |L4.2570|
;;;740    				}				
;;;741    				break;
000a0a  e0a4              B        |L4.2902|
                  |L4.2572|
;;;742        case 	6:
;;;743            if(m_bDilution==1)
000a0c  48a2              LDR      r0,|L4.3224|
000a0e  7800              LDRB     r0,[r0,#0]  ; m_bDilution
000a10  2801              CMP      r0,#1
000a12  d124              BNE      |L4.2654|
;;;744            {
;;;745    					if(m_bChanged)
000a14  48ad              LDR      r0,|L4.3276|
000a16  7800              LDRB     r0,[r0,#0]  ; m_bChanged
000a18  b180              CBZ      r0,|L4.2620|
;;;746    					{
;;;747    							Sample(Pnum+10,m,Percent,1);//	Pno =8;
000a1a  48ad              LDR      r0,|L4.3280|
000a1c  8800              LDRH     r0,[r0,#0]  ; m
000a1e  b280              UXTH     r0,r0
000a20  9013              STR      r0,[sp,#0x4c]
000a22  9816              LDR      r0,[sp,#0x58]
000a24  300a              ADDS     r0,r0,#0xa
000a26  b2c0              UXTB     r0,r0
000a28  2201              MOVS     r2,#1
000a2a  9012              STR      r0,[sp,#0x48]
000a2c  48a6              LDR      r0,|L4.3272|
000a2e  ed900b00          VLDR     d0,[r0,#0]
000a32  e9dd0112          LDRD     r0,r1,[sp,#0x48]
000a36  f7fffffe          BL       Sample
000a3a  e020              B        |L4.2686|
                  |L4.2620|
;;;748    					}
;;;749    					else
;;;750    					{
;;;751    							Sample(Pnum+10,m,Per,1);
000a3c  48a4              LDR      r0,|L4.3280|
000a3e  8800              LDRH     r0,[r0,#0]  ; m
000a40  b280              UXTH     r0,r0
000a42  9013              STR      r0,[sp,#0x4c]
000a44  9816              LDR      r0,[sp,#0x58]
000a46  300a              ADDS     r0,r0,#0xa
000a48  b2c0              UXTB     r0,r0
000a4a  2201              MOVS     r2,#1
000a4c  9012              STR      r0,[sp,#0x48]
000a4e  4897              LDR      r0,|L4.3244|
000a50  ed900b00          VLDR     d0,[r0,#0]
000a54  e9dd0112          LDRD     r0,r1,[sp,#0x48]
000a58  f7fffffe          BL       Sample
000a5c  e00f              B        |L4.2686|
                  |L4.2654|
;;;752    					}
;;;753            }
;;;754            else
;;;755              Sample(Pnum+10,m,Per,1);
000a5e  489c              LDR      r0,|L4.3280|
000a60  8800              LDRH     r0,[r0,#0]  ; m
000a62  b280              UXTH     r0,r0
000a64  9013              STR      r0,[sp,#0x4c]
000a66  9816              LDR      r0,[sp,#0x58]
000a68  300a              ADDS     r0,r0,#0xa
000a6a  b2c0              UXTB     r0,r0
000a6c  2201              MOVS     r2,#1
000a6e  9012              STR      r0,[sp,#0x48]
000a70  488e              LDR      r0,|L4.3244|
000a72  ed900b00          VLDR     d0,[r0,#0]
000a76  e9dd0112          LDRD     r0,r1,[sp,#0x48]
000a7a  f7fffffe          BL       Sample
                  |L4.2686|
;;;756    //			Sample(Pnum+10,m,Per,0);
;;;757            Intensitys[10]=Intensity1;
000a7e  4895              LDR      r0,|L4.3284|
000a80  6800              LDR      r0,[r0,#0]  ; Intensity1
000a82  4995              LDR      r1,|L4.3288|
000a84  6288              STR      r0,[r1,#0x28]  ; Intensitys
;;;758            Intensitys[11]=Intensity2;
000a86  4895              LDR      r0,|L4.3292|
000a88  6800              LDR      r0,[r0,#0]  ; Intensity2
000a8a  62c8              STR      r0,[r1,#0x2c]  ; Intensitys
;;;759            break;
000a8c  e063              B        |L4.2902|
                  |L4.2702|
;;;760        case 	7:
;;;761            Air();
000a8e  f7fffffe          BL       Air
;;;762            Intensitys[12]=Intensity1;
000a92  4890              LDR      r0,|L4.3284|
000a94  6800              LDR      r0,[r0,#0]  ; Intensity1
000a96  4990              LDR      r1,|L4.3288|
000a98  6308              STR      r0,[r1,#0x30]  ; Intensitys
;;;763            Intensitys[13]=Intensity2;
000a9a  4890              LDR      r0,|L4.3292|
000a9c  6800              LDR      r0,[r0,#0]  ; Intensity2
000a9e  6348              STR      r0,[r1,#0x34]  ; Intensitys
;;;764            break;
000aa0  e059              B        |L4.2902|
                  |L4.2722|
;;;765        case 	8:
;;;766            if(m_bDilution==1)
000aa2  487d              LDR      r0,|L4.3224|
000aa4  7800              LDRB     r0,[r0,#0]  ; m_bDilution
000aa6  2801              CMP      r0,#1
000aa8  d124              BNE      |L4.2804|
;;;767            {
;;;768    					if(m_bChanged)
000aaa  4888              LDR      r0,|L4.3276|
000aac  7800              LDRB     r0,[r0,#0]  ; m_bChanged
000aae  b180              CBZ      r0,|L4.2770|
;;;769    						Sample(Pnum+20,m,Per,1);
000ab0  4887              LDR      r0,|L4.3280|
000ab2  8800              LDRH     r0,[r0,#0]  ; m
000ab4  b280              UXTH     r0,r0
000ab6  9013              STR      r0,[sp,#0x4c]
000ab8  9816              LDR      r0,[sp,#0x58]
000aba  3014              ADDS     r0,r0,#0x14
000abc  b2c0              UXTB     r0,r0
000abe  2201              MOVS     r2,#1
000ac0  9012              STR      r0,[sp,#0x48]
000ac2  487a              LDR      r0,|L4.3244|
000ac4  ed900b00          VLDR     d0,[r0,#0]
000ac8  e9dd0112          LDRD     r0,r1,[sp,#0x48]
000acc  f7fffffe          BL       Sample
000ad0  e020              B        |L4.2836|
                  |L4.2770|
;;;770    					else
;;;771    						Sample(Pnum+20,m,Percent,1);
000ad2  487f              LDR      r0,|L4.3280|
000ad4  8800              LDRH     r0,[r0,#0]  ; m
000ad6  b280              UXTH     r0,r0
000ad8  9013              STR      r0,[sp,#0x4c]
000ada  9816              LDR      r0,[sp,#0x58]
000adc  3014              ADDS     r0,r0,#0x14
000ade  b2c0              UXTB     r0,r0
000ae0  2201              MOVS     r2,#1
000ae2  9012              STR      r0,[sp,#0x48]
000ae4  4878              LDR      r0,|L4.3272|
000ae6  ed900b00          VLDR     d0,[r0,#0]
000aea  e9dd0112          LDRD     r0,r1,[sp,#0x48]
000aee  f7fffffe          BL       Sample
000af2  e00f              B        |L4.2836|
                  |L4.2804|
;;;772            }
;;;773            else
;;;774    				Sample(Pnum+20,m,Per,1);
000af4  4876              LDR      r0,|L4.3280|
000af6  8800              LDRH     r0,[r0,#0]  ; m
000af8  b280              UXTH     r0,r0
000afa  9013              STR      r0,[sp,#0x4c]
000afc  9816              LDR      r0,[sp,#0x58]
000afe  3014              ADDS     r0,r0,#0x14
000b00  b2c0              UXTB     r0,r0
000b02  2201              MOVS     r2,#1
000b04  9012              STR      r0,[sp,#0x48]
000b06  4869              LDR      r0,|L4.3244|
000b08  ed900b00          VLDR     d0,[r0,#0]
000b0c  e9dd0112          LDRD     r0,r1,[sp,#0x48]
000b10  f7fffffe          BL       Sample
                  |L4.2836|
;;;775    //			Sample(Pnum+20,m,Per,0);
;;;776            Intensitys[14]=Intensity1;
000b14  486f              LDR      r0,|L4.3284|
000b16  6800              LDR      r0,[r0,#0]  ; Intensity1
000b18  496f              LDR      r1,|L4.3288|
000b1a  6388              STR      r0,[r1,#0x38]  ; Intensitys
;;;777            Intensitys[15]=Intensity2;
000b1c  486f              LDR      r0,|L4.3292|
000b1e  6800              LDR      r0,[r0,#0]  ; Intensity2
000b20  63c8              STR      r0,[r1,#0x3c]  ; Intensitys
;;;778            break;
000b22  e018              B        |L4.2902|
                  |L4.2852|
;;;779        case 	9:
;;;780            Air();
000b24  f7fffffe          BL       Air
;;;781            Valve(161);
000b28  20a1              MOVS     r0,#0xa1
000b2a  f7fffffe          BL       Valve
;;;782            Valve(150);
000b2e  2096              MOVS     r0,#0x96
000b30  f7fffffe          BL       Valve
;;;783            Intensitys[16]=Intensity1;
000b34  4867              LDR      r0,|L4.3284|
000b36  6800              LDR      r0,[r0,#0]  ; Intensity1
000b38  4967              LDR      r1,|L4.3288|
000b3a  6408              STR      r0,[r1,#0x40]  ; Intensitys
;;;784            Intensitys[17]=Intensity2;
000b3c  4867              LDR      r0,|L4.3292|
000b3e  6800              LDR      r0,[r0,#0]  ; Intensity2
000b40  6448              STR      r0,[r1,#0x44]  ; Intensitys
;;;785            GPIO_WriteBit(GPIO_M1MO,GPIO_Pin_M1MO,Bit_SET);
000b42  2201              MOVS     r2,#1
000b44  0291              LSLS     r1,r2,#10
000b46  4866              LDR      r0,|L4.3296|
000b48  f7fffffe          BL       GPIO_WriteBit
;;;786            Speaker(1);
000b4c  2001              MOVS     r0,#1
000b4e  f7fffffe          BL       Speaker
;;;787            break;
000b52  e000              B        |L4.2902|
                  |L4.2900|
;;;788        default:
;;;789            break;
000b54  bf00              NOP      
                  |L4.2902|
000b56  bf00              NOP                            ;662
;;;790        }
;;;791        if(m_bMeasureBreak==0)
000b58  4862              LDR      r0,|L4.3300|
000b5a  7800              LDRB     r0,[r0,#0]  ; m_bMeasureBreak
000b5c  2800              CMP      r0,#0
                  |L4.2910|
000b5e  d17c              BNE      |L4.3162|
;;;792        {
;;;793          if(Pno==9)
000b60  9814              LDR      r0,[sp,#0x50]
000b62  2809              CMP      r0,#9
000b64  d1fb              BNE      |L4.2910|
;;;794          {	 
;;;795    				//1.吸光度
;;;796    				xbc12=-log10((float)(Intensitys[10]<<1) / ((float)Intensitys[8]+(float)Intensitys[12]));
000b66  485c              LDR      r0,|L4.3288|
000b68  ed900a08          VLDR     s0,[r0,#0x20]
000b6c  eef80a40          VCVT.F32.U32 s1,s0
000b70  ed900a0c          VLDR     s0,[r0,#0x30]
000b74  eeb80a40          VCVT.F32.U32 s0,s0
000b78  ee700a80          VADD.F32 s1,s1,s0
000b7c  6a80              LDR      r0,[r0,#0x28]  ; Intensitys
000b7e  0040              LSLS     r0,r0,#1
000b80  ee000a10          VMOV     s0,r0
000b84  eeb81a40          VCVT.F32.U32 s2,s0
000b88  ee810a20          VDIV.F32 s0,s2,s1
000b8c  ed8d0a0f          VSTR     s0,[sp,#0x3c]
000b90  980f              LDR      r0,[sp,#0x3c]
000b92  f7fffffe          BL       __aeabi_f2d
000b96  e9cd0110          STRD     r0,r1,[sp,#0x40]
000b9a  ed9d0b10          VLDR     d0,[sp,#0x40]
000b9e  f7fffffe          BL       __hardfp_log10
000ba2  ed8d0b12          VSTR     d0,[sp,#0x48]
000ba6  ed9d0b12          VLDR     d0,[sp,#0x48]
000baa  ec510b10          VMOV     r0,r1,d0
000bae  f7fffffe          BL       __aeabi_dneg
000bb2  4a4d              LDR      r2,|L4.3304|
000bb4  c203              STM      r2!,{r0,r1}
;;;797    				xsc12=-log10((float)(Intensitys[14]<<1) / ((float)Intensitys[12]+(float)Intensitys[16]));
000bb6  4848              LDR      r0,|L4.3288|
000bb8  ed900a0c          VLDR     s0,[r0,#0x30]
000bbc  eef80a40          VCVT.F32.U32 s1,s0
000bc0  ed900a10          VLDR     s0,[r0,#0x40]
000bc4  eeb80a40          VCVT.F32.U32 s0,s0
000bc8  ee700a80          VADD.F32 s1,s1,s0
000bcc  6b80              LDR      r0,[r0,#0x38]  ; Intensitys
000bce  0040              LSLS     r0,r0,#1
000bd0  ee000a10          VMOV     s0,r0
000bd4  eeb81a40          VCVT.F32.U32 s2,s0
000bd8  ee810a20          VDIV.F32 s0,s2,s1
000bdc  ed8d0a0f          VSTR     s0,[sp,#0x3c]
000be0  980f              LDR      r0,[sp,#0x3c]
000be2  f7fffffe          BL       __aeabi_f2d
000be6  e9cd0110          STRD     r0,r1,[sp,#0x40]
000bea  ed9d0b10          VLDR     d0,[sp,#0x40]
000bee  f7fffffe          BL       __hardfp_log10
000bf2  ed8d0b12          VSTR     d0,[sp,#0x48]
000bf6  ed9d0b12          VLDR     d0,[sp,#0x48]
000bfa  ec510b10          VMOV     r0,r1,d0
000bfe  f7fffffe          BL       __aeabi_dneg
000c02  4a3a              LDR      r2,|L4.3308|
000c04  c203              STM      r2!,{r0,r1}
;;;798    
;;;799    				xbc13=-log10((float)(Intensitys[11]<<1) / ((float)Intensitys[9]+(float)Intensitys[13]));
000c06  4834              LDR      r0,|L4.3288|
000c08  ed900a09          VLDR     s0,[r0,#0x24]
000c0c  eef80a40          VCVT.F32.U32 s1,s0
000c10  ed900a0d          VLDR     s0,[r0,#0x34]
000c14  eeb80a40          VCVT.F32.U32 s0,s0
000c18  ee700a80          VADD.F32 s1,s1,s0
000c1c  6ac0              LDR      r0,[r0,#0x2c]  ; Intensitys
000c1e  0040              LSLS     r0,r0,#1
000c20  ee000a10          VMOV     s0,r0
000c24  eeb81a40          VCVT.F32.U32 s2,s0
000c28  ee810a20          VDIV.F32 s0,s2,s1
000c2c  ed8d0a0f          VSTR     s0,[sp,#0x3c]
000c30  980f              LDR      r0,[sp,#0x3c]
000c32  f7fffffe          BL       __aeabi_f2d
000c36  e9cd0110          STRD     r0,r1,[sp,#0x40]
000c3a  ed9d0b10          VLDR     d0,[sp,#0x40]
000c3e  f7fffffe          BL       __hardfp_log10
000c42  ed8d0b12          VSTR     d0,[sp,#0x48]
000c46  ed9d0b12          VLDR     d0,[sp,#0x48]
000c4a  ec510b10          VMOV     r0,r1,d0
000c4e  f7fffffe          BL       __aeabi_dneg
000c52  4a27              LDR      r2,|L4.3312|
000c54  c203              STM      r2!,{r0,r1}
;;;800    				xsc13=-log10((float)(Intensitys[15]<<1) / ((float)Intensitys[13]+(float)Intensitys[17]));
000c56  4820              LDR      r0,|L4.3288|
000c58  e000              B        |L4.3164|
                  |L4.3162|
000c5a  e35e              B        |L4.4890|
                  |L4.3164|
000c5c  ed900a0d          VLDR     s0,[r0,#0x34]
000c60  eef80a40          VCVT.F32.U32 s1,s0
000c64  ed900a11          VLDR     s0,[r0,#0x44]
000c68  eeb80a40          VCVT.F32.U32 s0,s0
000c6c  ee700a80          VADD.F32 s1,s1,s0
000c70  6bc0              LDR      r0,[r0,#0x3c]  ; Intensitys
000c72  0040              LSLS     r0,r0,#1
000c74  ee000a10          VMOV     s0,r0
000c78  eeb81a40          VCVT.F32.U32 s2,s0
000c7c  ee810a20          VDIV.F32 s0,s2,s1
000c80  e038              B        |L4.3316|
000c82  0000              DCW      0x0000
                  |L4.3204|
                          DCD      m_lC12S
                  |L4.3208|
                          DCD      m_lC12B
                  |L4.3212|
000c8c  9999999a          DCFD     0x3fa999999999999a ; 0.050000000000000003
000c90  3fa99999
                  |L4.3220|
                          DCD      m_mesureType
                  |L4.3224|
                          DCD      m_bDilution
                  |L4.3228|
000c9c  9999999a          DCFD     0x400199999999999a ; 2.2000000000000002
000ca0  40019999
                  |L4.3236|
000ca4  cccccccd          DCFD     0x3feccccccccccccd ; 0.90000000000000002
000ca8  3feccccc
                  |L4.3244|
                          DCD      Per
                  |L4.3248|
000cb0  00000000          DCFD     0x4010000000000000 ; 4
000cb4  40100000
                  |L4.3256|
000cb8  00000000          DCFD     0x3fe8000000000000 ; 0.75
000cbc  3fe80000
                  |L4.3264|
000cc0  9999999a          DCFD     0x3fe999999999999a ; 0.80000000000000004
000cc4  3fe99999
                  |L4.3272|
                          DCD      Percent
                  |L4.3276|
                          DCD      m_bChanged
                  |L4.3280|
                          DCD      m
                  |L4.3284|
                          DCD      Intensity1
                  |L4.3288|
                          DCD      Intensitys
                  |L4.3292|
                          DCD      Intensity2
                  |L4.3296|
                          DCD      0x40021c00
                  |L4.3300|
                          DCD      m_bMeasureBreak
                  |L4.3304|
                          DCD      xbc12
                  |L4.3308|
                          DCD      xsc12
                  |L4.3312|
                          DCD      xbc13
                  |L4.3316|
000cf4  ed8d0a0f          VSTR     s0,[sp,#0x3c]
000cf8  980f              LDR      r0,[sp,#0x3c]
000cfa  f7fffffe          BL       __aeabi_f2d
000cfe  e9cd0110          STRD     r0,r1,[sp,#0x40]
000d02  ed9d0b10          VLDR     d0,[sp,#0x40]
000d06  f7fffffe          BL       __hardfp_log10
000d0a  ed8d0b12          VSTR     d0,[sp,#0x48]
000d0e  ed9d0b12          VLDR     d0,[sp,#0x48]
000d12  ec510b10          VMOV     r0,r1,d0
000d16  f7fffffe          BL       __aeabi_dneg
000d1a  4afe              LDR      r2,|L4.4372|
000d1c  c203              STM      r2!,{r0,r1}
;;;801    
;;;802    				
;;;803    					//2.浓度				
;;;804    					cbc12 = ((((m_lCfC12[5] * xbc12 + m_lCfC12[4]) * xbc12 + m_lCfC12[3]) * xbc12 + m_lCfC12[2]) * xbc12 + m_lCfC12[1]) * xbc12 + m_lCfC12[0];
000d1e  48fe              LDR      r0,|L4.4376|
000d20  ed900b0a          VLDR     d0,[r0,#0x28]
000d24  ed8d0b00          VSTR     d0,[sp,#0]
000d28  48fc              LDR      r0,|L4.4380|
000d2a  ed900b00          VLDR     d0,[r0,#0]
000d2e  ec532b10          VMOV     r2,r3,d0
000d32  ed9d0b00          VLDR     d0,[sp,#0]
000d36  ec510b10          VMOV     r0,r1,d0
000d3a  f7fffffe          BL       __aeabi_dmul
000d3e  e9cd0102          STRD     r0,r1,[sp,#8]
000d42  48f5              LDR      r0,|L4.4376|
000d44  ed900b08          VLDR     d0,[r0,#0x20]
000d48  ed8d0b00          VSTR     d0,[sp,#0]
000d4c  ed9d0b00          VLDR     d0,[sp,#0]
000d50  ec532b10          VMOV     r2,r3,d0
000d54  ed9d0b02          VLDR     d0,[sp,#8]
000d58  ec510b10          VMOV     r0,r1,d0
000d5c  f7fffffe          BL       __aeabi_dadd
000d60  e9cd0104          STRD     r0,r1,[sp,#0x10]
000d64  48ed              LDR      r0,|L4.4380|
000d66  ed900b00          VLDR     d0,[r0,#0]
000d6a  ec532b10          VMOV     r2,r3,d0
000d6e  ed9d0b04          VLDR     d0,[sp,#0x10]
000d72  ec510b10          VMOV     r0,r1,d0
000d76  f7fffffe          BL       __aeabi_dmul
000d7a  e9cd0106          STRD     r0,r1,[sp,#0x18]
000d7e  48e6              LDR      r0,|L4.4376|
000d80  ed900b06          VLDR     d0,[r0,#0x18]
000d84  ed8d0b04          VSTR     d0,[sp,#0x10]
000d88  ed9d0b04          VLDR     d0,[sp,#0x10]
000d8c  ec532b10          VMOV     r2,r3,d0
000d90  ed9d0b06          VLDR     d0,[sp,#0x18]
000d94  ec510b10          VMOV     r0,r1,d0
000d98  f7fffffe          BL       __aeabi_dadd
000d9c  e9cd0108          STRD     r0,r1,[sp,#0x20]
000da0  48de              LDR      r0,|L4.4380|
000da2  ed900b00          VLDR     d0,[r0,#0]
000da6  ec532b10          VMOV     r2,r3,d0
000daa  ed9d0b08          VLDR     d0,[sp,#0x20]
000dae  ec510b10          VMOV     r0,r1,d0
000db2  f7fffffe          BL       __aeabi_dmul
000db6  e9cd010a          STRD     r0,r1,[sp,#0x28]
000dba  48d7              LDR      r0,|L4.4376|
000dbc  ed900b04          VLDR     d0,[r0,#0x10]
000dc0  ed8d0b08          VSTR     d0,[sp,#0x20]
000dc4  ed9d0b08          VLDR     d0,[sp,#0x20]
000dc8  ec532b10          VMOV     r2,r3,d0
000dcc  ed9d0b0a          VLDR     d0,[sp,#0x28]
000dd0  ec510b10          VMOV     r0,r1,d0
000dd4  f7fffffe          BL       __aeabi_dadd
000dd8  e9cd010c          STRD     r0,r1,[sp,#0x30]
000ddc  48cf              LDR      r0,|L4.4380|
000dde  ed900b00          VLDR     d0,[r0,#0]
000de2  ec532b10          VMOV     r2,r3,d0
000de6  ed9d0b0c          VLDR     d0,[sp,#0x30]
000dea  ec510b10          VMOV     r0,r1,d0
000dee  f7fffffe          BL       __aeabi_dmul
000df2  e9cd010e          STRD     r0,r1,[sp,#0x38]
000df6  48c8              LDR      r0,|L4.4376|
000df8  ed900b02          VLDR     d0,[r0,#8]
000dfc  ed8d0b0c          VSTR     d0,[sp,#0x30]
000e00  ed9d0b0c          VLDR     d0,[sp,#0x30]
000e04  ec532b10          VMOV     r2,r3,d0
000e08  ed9d0b0e          VLDR     d0,[sp,#0x38]
000e0c  ec510b10          VMOV     r0,r1,d0
000e10  f7fffffe          BL       __aeabi_dadd
000e14  e9cd0110          STRD     r0,r1,[sp,#0x40]
000e18  48c0              LDR      r0,|L4.4380|
000e1a  ed900b00          VLDR     d0,[r0,#0]
000e1e  ec532b10          VMOV     r2,r3,d0
000e22  ed9d0b10          VLDR     d0,[sp,#0x40]
000e26  ec510b10          VMOV     r0,r1,d0
000e2a  f7fffffe          BL       __aeabi_dmul
000e2e  e9cd0112          STRD     r0,r1,[sp,#0x48]
000e32  48b9              LDR      r0,|L4.4376|
000e34  ed900b00          VLDR     d0,[r0,#0]
000e38  ed8d0b10          VSTR     d0,[sp,#0x40]
000e3c  ed9d0b10          VLDR     d0,[sp,#0x40]
000e40  ec532b10          VMOV     r2,r3,d0
000e44  ed9d0b12          VLDR     d0,[sp,#0x48]
000e48  ec510b10          VMOV     r0,r1,d0
000e4c  f7fffffe          BL       __aeabi_dadd
000e50  4ab3              LDR      r2,|L4.4384|
000e52  c203              STM      r2!,{r0,r1}
;;;805    					csc12 = ((((m_lCfC12[5] * xsc12 + m_lCfC12[4]) * xsc12 + m_lCfC12[3]) * xsc12 + m_lCfC12[2]) * xsc12 + m_lCfC12[1]) * xsc12 + m_lCfC12[0];
000e54  48b0              LDR      r0,|L4.4376|
000e56  ed900b0a          VLDR     d0,[r0,#0x28]
000e5a  ed8d0b00          VSTR     d0,[sp,#0]
000e5e  48b1              LDR      r0,|L4.4388|
000e60  ed900b00          VLDR     d0,[r0,#0]
000e64  ec532b10          VMOV     r2,r3,d0
000e68  ed9d0b00          VLDR     d0,[sp,#0]
000e6c  ec510b10          VMOV     r0,r1,d0
000e70  f7fffffe          BL       __aeabi_dmul
000e74  e9cd0102          STRD     r0,r1,[sp,#8]
000e78  48a7              LDR      r0,|L4.4376|
000e7a  ed900b08          VLDR     d0,[r0,#0x20]
000e7e  ed8d0b00          VSTR     d0,[sp,#0]
000e82  ed9d0b00          VLDR     d0,[sp,#0]
000e86  ec532b10          VMOV     r2,r3,d0
000e8a  ed9d0b02          VLDR     d0,[sp,#8]
000e8e  ec510b10          VMOV     r0,r1,d0
000e92  f7fffffe          BL       __aeabi_dadd
000e96  e9cd0104          STRD     r0,r1,[sp,#0x10]
000e9a  48a2              LDR      r0,|L4.4388|
000e9c  ed900b00          VLDR     d0,[r0,#0]
000ea0  ec532b10          VMOV     r2,r3,d0
000ea4  ed9d0b04          VLDR     d0,[sp,#0x10]
000ea8  ec510b10          VMOV     r0,r1,d0
000eac  f7fffffe          BL       __aeabi_dmul
000eb0  e9cd0106          STRD     r0,r1,[sp,#0x18]
000eb4  4898              LDR      r0,|L4.4376|
000eb6  ed900b06          VLDR     d0,[r0,#0x18]
000eba  ed8d0b04          VSTR     d0,[sp,#0x10]
000ebe  ed9d0b04          VLDR     d0,[sp,#0x10]
000ec2  ec532b10          VMOV     r2,r3,d0
000ec6  ed9d0b06          VLDR     d0,[sp,#0x18]
000eca  ec510b10          VMOV     r0,r1,d0
000ece  f7fffffe          BL       __aeabi_dadd
000ed2  e9cd0108          STRD     r0,r1,[sp,#0x20]
000ed6  4893              LDR      r0,|L4.4388|
000ed8  ed900b00          VLDR     d0,[r0,#0]
000edc  ec532b10          VMOV     r2,r3,d0
000ee0  ed9d0b08          VLDR     d0,[sp,#0x20]
000ee4  ec510b10          VMOV     r0,r1,d0
000ee8  f7fffffe          BL       __aeabi_dmul
000eec  e9cd010a          STRD     r0,r1,[sp,#0x28]
000ef0  4889              LDR      r0,|L4.4376|
000ef2  ed900b04          VLDR     d0,[r0,#0x10]
000ef6  ed8d0b08          VSTR     d0,[sp,#0x20]
000efa  ed9d0b08          VLDR     d0,[sp,#0x20]
000efe  ec532b10          VMOV     r2,r3,d0
000f02  ed9d0b0a          VLDR     d0,[sp,#0x28]
000f06  ec510b10          VMOV     r0,r1,d0
000f0a  f7fffffe          BL       __aeabi_dadd
000f0e  e9cd010c          STRD     r0,r1,[sp,#0x30]
000f12  4884              LDR      r0,|L4.4388|
000f14  ed900b00          VLDR     d0,[r0,#0]
000f18  ec532b10          VMOV     r2,r3,d0
000f1c  ed9d0b0c          VLDR     d0,[sp,#0x30]
000f20  ec510b10          VMOV     r0,r1,d0
000f24  f7fffffe          BL       __aeabi_dmul
000f28  e9cd010e          STRD     r0,r1,[sp,#0x38]
000f2c  487a              LDR      r0,|L4.4376|
000f2e  ed900b02          VLDR     d0,[r0,#8]
000f32  ed8d0b0c          VSTR     d0,[sp,#0x30]
000f36  ed9d0b0c          VLDR     d0,[sp,#0x30]
000f3a  ec532b10          VMOV     r2,r3,d0
000f3e  ed9d0b0e          VLDR     d0,[sp,#0x38]
000f42  ec510b10          VMOV     r0,r1,d0
000f46  f7fffffe          BL       __aeabi_dadd
000f4a  e9cd0110          STRD     r0,r1,[sp,#0x40]
000f4e  4875              LDR      r0,|L4.4388|
000f50  ed900b00          VLDR     d0,[r0,#0]
000f54  ec532b10          VMOV     r2,r3,d0
000f58  ed9d0b10          VLDR     d0,[sp,#0x40]
000f5c  ec510b10          VMOV     r0,r1,d0
000f60  f7fffffe          BL       __aeabi_dmul
000f64  e9cd0112          STRD     r0,r1,[sp,#0x48]
000f68  486b              LDR      r0,|L4.4376|
000f6a  ed900b00          VLDR     d0,[r0,#0]
000f6e  ed8d0b10          VSTR     d0,[sp,#0x40]
000f72  ed9d0b10          VLDR     d0,[sp,#0x40]
000f76  ec532b10          VMOV     r2,r3,d0
000f7a  ed9d0b12          VLDR     d0,[sp,#0x48]
000f7e  ec510b10          VMOV     r0,r1,d0
000f82  f7fffffe          BL       __aeabi_dadd
000f86  4a68              LDR      r2,|L4.4392|
000f88  c203              STM      r2!,{r0,r1}
;;;806    					cbc13 = ((((m_lCfC13[5] * xbc13 + m_lCfC13[4]) * xbc13 + m_lCfC13[3]) * xbc13 + m_lCfC13[2]) * xbc13 + m_lCfC13[1]) * xbc13 + m_lCfC13[0];
000f8a  4868              LDR      r0,|L4.4396|
000f8c  ed900b0a          VLDR     d0,[r0,#0x28]
000f90  ed8d0b00          VSTR     d0,[sp,#0]
000f94  4866              LDR      r0,|L4.4400|
000f96  ed900b00          VLDR     d0,[r0,#0]
000f9a  ec532b10          VMOV     r2,r3,d0
000f9e  ed9d0b00          VLDR     d0,[sp,#0]
000fa2  ec510b10          VMOV     r0,r1,d0
000fa6  f7fffffe          BL       __aeabi_dmul
000faa  e9cd0102          STRD     r0,r1,[sp,#8]
000fae  485f              LDR      r0,|L4.4396|
000fb0  ed900b08          VLDR     d0,[r0,#0x20]
000fb4  ed8d0b00          VSTR     d0,[sp,#0]
000fb8  ed9d0b00          VLDR     d0,[sp,#0]
000fbc  ec532b10          VMOV     r2,r3,d0
000fc0  ed9d0b02          VLDR     d0,[sp,#8]
000fc4  ec510b10          VMOV     r0,r1,d0
000fc8  f7fffffe          BL       __aeabi_dadd
000fcc  e9cd0104          STRD     r0,r1,[sp,#0x10]
000fd0  4857              LDR      r0,|L4.4400|
000fd2  ed900b00          VLDR     d0,[r0,#0]
000fd6  ec532b10          VMOV     r2,r3,d0
000fda  ed9d0b04          VLDR     d0,[sp,#0x10]
000fde  ec510b10          VMOV     r0,r1,d0
000fe2  f7fffffe          BL       __aeabi_dmul
000fe6  e9cd0106          STRD     r0,r1,[sp,#0x18]
000fea  4850              LDR      r0,|L4.4396|
000fec  ed900b06          VLDR     d0,[r0,#0x18]
000ff0  ed8d0b04          VSTR     d0,[sp,#0x10]
000ff4  ed9d0b04          VLDR     d0,[sp,#0x10]
000ff8  ec532b10          VMOV     r2,r3,d0
000ffc  ed9d0b06          VLDR     d0,[sp,#0x18]
001000  ec510b10          VMOV     r0,r1,d0
001004  f7fffffe          BL       __aeabi_dadd
001008  e9cd0108          STRD     r0,r1,[sp,#0x20]
00100c  4848              LDR      r0,|L4.4400|
00100e  ed900b00          VLDR     d0,[r0,#0]
001012  ec532b10          VMOV     r2,r3,d0
001016  ed9d0b08          VLDR     d0,[sp,#0x20]
00101a  ec510b10          VMOV     r0,r1,d0
00101e  f7fffffe          BL       __aeabi_dmul
001022  e9cd010a          STRD     r0,r1,[sp,#0x28]
001026  4841              LDR      r0,|L4.4396|
001028  ed900b04          VLDR     d0,[r0,#0x10]
00102c  ed8d0b08          VSTR     d0,[sp,#0x20]
001030  ed9d0b08          VLDR     d0,[sp,#0x20]
001034  ec532b10          VMOV     r2,r3,d0
001038  ed9d0b0a          VLDR     d0,[sp,#0x28]
00103c  ec510b10          VMOV     r0,r1,d0
001040  f7fffffe          BL       __aeabi_dadd
001044  e9cd010c          STRD     r0,r1,[sp,#0x30]
001048  4839              LDR      r0,|L4.4400|
00104a  ed900b00          VLDR     d0,[r0,#0]
00104e  ec532b10          VMOV     r2,r3,d0
001052  ed9d0b0c          VLDR     d0,[sp,#0x30]
001056  ec510b10          VMOV     r0,r1,d0
00105a  f7fffffe          BL       __aeabi_dmul
00105e  e9cd010e          STRD     r0,r1,[sp,#0x38]
001062  4832              LDR      r0,|L4.4396|
001064  ed900b02          VLDR     d0,[r0,#8]
001068  ed8d0b0c          VSTR     d0,[sp,#0x30]
00106c  ed9d0b0c          VLDR     d0,[sp,#0x30]
001070  ec532b10          VMOV     r2,r3,d0
001074  ed9d0b0e          VLDR     d0,[sp,#0x38]
001078  ec510b10          VMOV     r0,r1,d0
00107c  f7fffffe          BL       __aeabi_dadd
001080  e9cd0110          STRD     r0,r1,[sp,#0x40]
001084  482a              LDR      r0,|L4.4400|
001086  ed900b00          VLDR     d0,[r0,#0]
00108a  ec532b10          VMOV     r2,r3,d0
00108e  ed9d0b10          VLDR     d0,[sp,#0x40]
001092  ec510b10          VMOV     r0,r1,d0
001096  f7fffffe          BL       __aeabi_dmul
00109a  e9cd0112          STRD     r0,r1,[sp,#0x48]
00109e  4823              LDR      r0,|L4.4396|
0010a0  ed900b00          VLDR     d0,[r0,#0]
0010a4  ed8d0b10          VSTR     d0,[sp,#0x40]
0010a8  ed9d0b10          VLDR     d0,[sp,#0x40]
0010ac  ec532b10          VMOV     r2,r3,d0
0010b0  ed9d0b12          VLDR     d0,[sp,#0x48]
0010b4  ec510b10          VMOV     r0,r1,d0
0010b8  f7fffffe          BL       __aeabi_dadd
0010bc  4a1d              LDR      r2,|L4.4404|
0010be  c203              STM      r2!,{r0,r1}
;;;807    					csc13 = ((((m_lCfC13[5] * xsc13 + m_lCfC13[4]) * xsc13 + m_lCfC13[3]) * xsc13 + m_lCfC13[2]) * xsc13 + m_lCfC13[1]) * xsc13 + m_lCfC13[0];
0010c0  481a              LDR      r0,|L4.4396|
0010c2  ed900b0a          VLDR     d0,[r0,#0x28]
0010c6  ed8d0b00          VSTR     d0,[sp,#0]
0010ca  4812              LDR      r0,|L4.4372|
0010cc  ed900b00          VLDR     d0,[r0,#0]
0010d0  ec532b10          VMOV     r2,r3,d0
0010d4  ed9d0b00          VLDR     d0,[sp,#0]
0010d8  ec510b10          VMOV     r0,r1,d0
0010dc  f7fffffe          BL       __aeabi_dmul
0010e0  e9cd0102          STRD     r0,r1,[sp,#8]
0010e4  4811              LDR      r0,|L4.4396|
0010e6  ed900b08          VLDR     d0,[r0,#0x20]
0010ea  ed8d0b00          VSTR     d0,[sp,#0]
0010ee  ed9d0b00          VLDR     d0,[sp,#0]
0010f2  ec532b10          VMOV     r2,r3,d0
0010f6  ed9d0b02          VLDR     d0,[sp,#8]
0010fa  ec510b10          VMOV     r0,r1,d0
0010fe  f7fffffe          BL       __aeabi_dadd
001102  e9cd0104          STRD     r0,r1,[sp,#0x10]
001106  4803              LDR      r0,|L4.4372|
001108  ed900b00          VLDR     d0,[r0,#0]
00110c  ec532b10          VMOV     r2,r3,d0
001110  e012              B        |L4.4408|
001112  0000              DCW      0x0000
                  |L4.4372|
                          DCD      xsc13
                  |L4.4376|
                          DCD      m_lCfC12
                  |L4.4380|
                          DCD      xbc12
                  |L4.4384|
                          DCD      cbc12
                  |L4.4388|
                          DCD      xsc12
                  |L4.4392|
                          DCD      csc12
                  |L4.4396|
                          DCD      m_lCfC13
                  |L4.4400|
                          DCD      xbc13
                  |L4.4404|
                          DCD      cbc13
                  |L4.4408|
001138  ed9d0b04          VLDR     d0,[sp,#0x10]
00113c  ec510b10          VMOV     r0,r1,d0
001140  f7fffffe          BL       __aeabi_dmul
001144  e9cd0106          STRD     r0,r1,[sp,#0x18]
001148  4875              LDR      r0,|L4.4896|
00114a  ed900b06          VLDR     d0,[r0,#0x18]
00114e  ed8d0b04          VSTR     d0,[sp,#0x10]
001152  ed9d0b04          VLDR     d0,[sp,#0x10]
001156  ec532b10          VMOV     r2,r3,d0
00115a  ed9d0b06          VLDR     d0,[sp,#0x18]
00115e  ec510b10          VMOV     r0,r1,d0
001162  f7fffffe          BL       __aeabi_dadd
001166  e9cd0108          STRD     r0,r1,[sp,#0x20]
00116a  486e              LDR      r0,|L4.4900|
00116c  ed900b00          VLDR     d0,[r0,#0]
001170  ec532b10          VMOV     r2,r3,d0
001174  ed9d0b08          VLDR     d0,[sp,#0x20]
001178  ec510b10          VMOV     r0,r1,d0
00117c  f7fffffe          BL       __aeabi_dmul
001180  e9cd010a          STRD     r0,r1,[sp,#0x28]
001184  4866              LDR      r0,|L4.4896|
001186  ed900b04          VLDR     d0,[r0,#0x10]
00118a  ed8d0b08          VSTR     d0,[sp,#0x20]
00118e  ed9d0b08          VLDR     d0,[sp,#0x20]
001192  ec532b10          VMOV     r2,r3,d0
001196  ed9d0b0a          VLDR     d0,[sp,#0x28]
00119a  ec510b10          VMOV     r0,r1,d0
00119e  f7fffffe          BL       __aeabi_dadd
0011a2  e9cd010c          STRD     r0,r1,[sp,#0x30]
0011a6  485f              LDR      r0,|L4.4900|
0011a8  ed900b00          VLDR     d0,[r0,#0]
0011ac  ec532b10          VMOV     r2,r3,d0
0011b0  ed9d0b0c          VLDR     d0,[sp,#0x30]
0011b4  ec510b10          VMOV     r0,r1,d0
0011b8  f7fffffe          BL       __aeabi_dmul
0011bc  e9cd010e          STRD     r0,r1,[sp,#0x38]
0011c0  4857              LDR      r0,|L4.4896|
0011c2  ed900b02          VLDR     d0,[r0,#8]
0011c6  ed8d0b0c          VSTR     d0,[sp,#0x30]
0011ca  ed9d0b0c          VLDR     d0,[sp,#0x30]
0011ce  ec532b10          VMOV     r2,r3,d0
0011d2  ed9d0b0e          VLDR     d0,[sp,#0x38]
0011d6  ec510b10          VMOV     r0,r1,d0
0011da  f7fffffe          BL       __aeabi_dadd
0011de  e9cd0110          STRD     r0,r1,[sp,#0x40]
0011e2  4850              LDR      r0,|L4.4900|
0011e4  ed900b00          VLDR     d0,[r0,#0]
0011e8  ec532b10          VMOV     r2,r3,d0
0011ec  ed9d0b10          VLDR     d0,[sp,#0x40]
0011f0  ec510b10          VMOV     r0,r1,d0
0011f4  f7fffffe          BL       __aeabi_dmul
0011f8  e9cd0112          STRD     r0,r1,[sp,#0x48]
0011fc  4848              LDR      r0,|L4.4896|
0011fe  ed900b00          VLDR     d0,[r0,#0]
001202  ed8d0b10          VSTR     d0,[sp,#0x40]
001206  ed9d0b10          VLDR     d0,[sp,#0x40]
00120a  ec532b10          VMOV     r2,r3,d0
00120e  ed9d0b12          VLDR     d0,[sp,#0x48]
001212  ec510b10          VMOV     r0,r1,d0
001216  f7fffffe          BL       __aeabi_dadd
00121a  4a43              LDR      r2,|L4.4904|
00121c  c203              STM      r2!,{r0,r1}
;;;808    					//3.浓度比
;;;809    					ratebase	= cbc13*100.0/cbc12*10.0;	 //107.7-->1.077
00121e  ed9f0b43          VLDR     d0,|L4.4908|
001222  ec532b10          VMOV     r2,r3,d0
001226  4843              LDR      r0,|L4.4916|
001228  ed900b00          VLDR     d0,[r0,#0]
00122c  ec510b10          VMOV     r0,r1,d0
001230  f7fffffe          BL       __aeabi_dmul
001234  e9cd0110          STRD     r0,r1,[sp,#0x40]
001238  483f              LDR      r0,|L4.4920|
00123a  ed900b00          VLDR     d0,[r0,#0]
00123e  ec532b10          VMOV     r2,r3,d0
001242  ed9d0b10          VLDR     d0,[sp,#0x40]
001246  ec510b10          VMOV     r0,r1,d0
00124a  f7fffffe          BL       __aeabi_ddiv
00124e  ed9f0b3b          VLDR     d0,|L4.4924|
001252  ec532b10          VMOV     r2,r3,d0
001256  e9cd0112          STRD     r0,r1,[sp,#0x48]
00125a  ed9d0b12          VLDR     d0,[sp,#0x48]
00125e  ec510b10          VMOV     r0,r1,d0
001262  f7fffffe          BL       __aeabi_dmul
001266  4a37              LDR      r2,|L4.4932|
001268  c203              STM      r2!,{r0,r1}
;;;810    					ratesample	= csc13*100.0/csc12*10.0;
00126a  ed9f0b30          VLDR     d0,|L4.4908|
00126e  ec532b10          VMOV     r2,r3,d0
001272  482d              LDR      r0,|L4.4904|
001274  ed900b00          VLDR     d0,[r0,#0]
001278  ec510b10          VMOV     r0,r1,d0
00127c  f7fffffe          BL       __aeabi_dmul
001280  e9cd0110          STRD     r0,r1,[sp,#0x40]
001284  4830              LDR      r0,|L4.4936|
001286  ed900b00          VLDR     d0,[r0,#0]
00128a  ec532b10          VMOV     r2,r3,d0
00128e  ed9d0b10          VLDR     d0,[sp,#0x40]
001292  ec510b10          VMOV     r0,r1,d0
001296  f7fffffe          BL       __aeabi_ddiv
00129a  ed9f0b28          VLDR     d0,|L4.4924|
00129e  ec532b10          VMOV     r2,r3,d0
0012a2  e9cd0112          STRD     r0,r1,[sp,#0x48]
0012a6  ed9d0b12          VLDR     d0,[sp,#0x48]
0012aa  ec510b10          VMOV     r0,r1,d0
0012ae  f7fffffe          BL       __aeabi_dmul
0012b2  4a26              LDR      r2,|L4.4940|
0012b4  c203              STM      r2!,{r0,r1}
;;;811    					//4.dob	 *100
;;;812    					dob=(s16)((ratesample-ratebase)*100.0/1.12372);     
0012b6  4823              LDR      r0,|L4.4932|
0012b8  ed900b00          VLDR     d0,[r0,#0]
0012bc  ec532b10          VMOV     r2,r3,d0
0012c0  4822              LDR      r0,|L4.4940|
0012c2  ed900b00          VLDR     d0,[r0,#0]
0012c6  ec510b10          VMOV     r0,r1,d0
0012ca  f7fffffe          BL       __aeabi_dsub
0012ce  ed9f0b17          VLDR     d0,|L4.4908|
0012d2  ec532b10          VMOV     r2,r3,d0
0012d6  e9cd010e          STRD     r0,r1,[sp,#0x38]
0012da  ed9d0b0e          VLDR     d0,[sp,#0x38]
0012de  ec510b10          VMOV     r0,r1,d0
0012e2  f7fffffe          BL       __aeabi_dmul
0012e6  ed9f0b1a          VLDR     d0,|L4.4944|
0012ea  ec532b10          VMOV     r2,r3,d0
0012ee  e9cd0110          STRD     r0,r1,[sp,#0x40]
0012f2  ed9d0b10          VLDR     d0,[sp,#0x40]
0012f6  ec510b10          VMOV     r0,r1,d0
0012fa  f7fffffe          BL       __aeabi_ddiv
0012fe  e9cd0112          STRD     r0,r1,[sp,#0x48]
001302  ed9d0b12          VLDR     d0,[sp,#0x48]
001306  ec510b10          VMOV     r0,r1,d0
00130a  f7fffffe          BL       __aeabi_d2iz
00130e  b200              SXTH     r0,r0
001310  4911              LDR      r1,|L4.4952|
001312  8008              STRH     r0,[r1,#0]
;;;813    //					Num++;
;;;814    //					GetDate();
;;;815    //					GetTime();
;;;816    //					ID[0]= (dob&0xFF00)>>8;
;;;817    //					ID[1]=  dob&0x00FF;					
;;;818    //					ID[2]= (Num&0xFF00)>>8;
;;;819    //					ID[3]=  Num&0x00FF;
;;;820    //					ID[5]= ((u16)(cbc12*1000)&0xFF00)>>8;
;;;821    //					ID[4]=  (u16)(cbc12*1000)&0x00FF;
;;;822    //					ID[6]= checkChannel;
;;;823    //					ID[18]= ((u16)(csc12*1000)&0xFF00)>>8;
;;;824    //					ID[17]=  (u16)(csc12*1000)&0x00FF;
;;;825    //					ID[7]=timer.w_year/10%10;
;;;826    //					ID[8]=timer.w_year%10;
;;;827    //					ID[9]=timer.w_month/10;
;;;828    //					ID[10]=timer.w_month%10;
;;;829    //					ID[11]=timer.w_date/10;
;;;830    //					ID[12]=timer.w_date%10;
;;;831    //					ID[13]=timer.hour/10;
;;;832    //					ID[14]=timer.hour%10;
;;;833    //					ID[15]=timer.min/10;
;;;834    //					ID[16]=timer.min%10;
;;;835    //					ID[20]=flag_dob;
;;;836    //					SPI_FLASH_SectorErase(0x7E0000);
;;;837    //					SPI_FLASH_BufferWrite(ID,0x7E0000,30);
;;;838    //					SPI_FLASH_BufferWrite(ID,0x010000+Num*30,30);
;;;839    //				print_result();
;;;840    				fButton=0;
001314  2000              MOVS     r0,#0
001316  4911              LDR      r1,|L4.4956|
001318  7008              STRB     r0,[r1,#0]
                  |L4.4890|
;;;841        }
;;;842    			
;;;843      }
;;;844    }
00131a  b017              ADD      sp,sp,#0x5c
00131c  bd00              POP      {pc}
                          ENDP

00131e  0000              DCW      0x0000
                  |L4.4896|
                          DCD      m_lCfC13
                  |L4.4900|
                          DCD      xsc13
                  |L4.4904|
                          DCD      csc13
                  |L4.4908|
00132c  00000000          DCFD     0x4059000000000000 ; 100
001330  40590000
                  |L4.4916|
                          DCD      cbc13
                  |L4.4920|
                          DCD      cbc12
                  |L4.4924|
00133c  00000000          DCFD     0x4024000000000000 ; 10
001340  40240000
                  |L4.4932|
                          DCD      ratebase
                  |L4.4936|
                          DCD      csc12
                  |L4.4940|
                          DCD      ratesample
                  |L4.4944|
001350  d29dc726          DCFD     0x3ff1fac1d29dc726 ; 1.1237200000000001
001354  3ff1fac1
                  |L4.4952|
                          DCD      ||dob||
                  |L4.4956|
                          DCD      fButton

                          AREA ||i.Dis_Measurement||, CODE, READONLY, ALIGN=2

                  Dis_Measurement PROC
;;;404    }
;;;405    void Dis_Measurement(void)
000000  b538              PUSH     {r3-r5,lr}
;;;406    {
;;;407    	uint8_t i;	
;;;408    	DispTopBar();		/* 显示顶部栏 */
000002  f7fffffe          BL       DispTopBar
;;;409    	DispBottomBar();	/* 显示底部栏 */
000006  f7fffffe          BL       DispBottomBar
;;;410    	DispBackground();	/* 显示图标背景 */
00000a  f7fffffe          BL       DispBackground
;;;411    	
;;;412    
;;;413    	
;;;414    	CH1Btn.Font = &tFontBtnCh1;
00000e  4858              LDR      r0,|L5.368|
000010  4958              LDR      r1,|L5.372|
000012  60c8              STR      r0,[r1,#0xc]  ; CH1Btn
;;;415    	CH1Btn.Left = CH1BUTTON_RET_X;
000014  2032              MOVS     r0,#0x32
000016  8048              STRH     r0,[r1,#2]
;;;416    	CH1Btn.Top = CH1BUTTON_RET_Y;
000018  2078              MOVS     r0,#0x78
00001a  8088              STRH     r0,[r1,#4]
;;;417    	CH1Btn.Height = CHBUTTON_RET_H;
00001c  201e              MOVS     r0,#0x1e
00001e  80c8              STRH     r0,[r1,#6]
;;;418    	CH1Btn.Width = CHBUTTON_RET_W;
000020  8108              STRH     r0,[r1,#8]
;;;419    	CH1Btn.Focus = 1;	/* 焦点 */
000022  2001              MOVS     r0,#1
000024  7508              STRB     r0,[r1,#0x14]
;;;420    	strcpy(ch,"1");							
000026  4854              LDR      r0,|L5.376|
000028  a154              ADR      r1,|L5.380|
00002a  8809              LDRH     r1,[r1,#0]
00002c  8001              STRH     r1,[r0,#0]
;;;421    	CH1Btn.pCaption = ch;
00002e  4951              LDR      r1,|L5.372|
000030  6108              STR      r0,[r1,#0x10]  ; CH1Btn
;;;422    	LCD_DrawButton(&CH1Btn);
000032  4608              MOV      r0,r1
000034  f7fffffe          BL       LCD_DrawButton
;;;423    	
;;;424    	CH2Btn.Font = &tFontBtnCh1;
000038  484d              LDR      r0,|L5.368|
00003a  4951              LDR      r1,|L5.384|
00003c  60c8              STR      r0,[r1,#0xc]  ; CH2Btn
;;;425    	CH2Btn.Left = CH2BUTTON_RET_X;
00003e  2032              MOVS     r0,#0x32
000040  8048              STRH     r0,[r1,#2]
;;;426    	CH2Btn.Top = CH2BUTTON_RET_Y;
000042  20f0              MOVS     r0,#0xf0
000044  8088              STRH     r0,[r1,#4]
;;;427    	CH2Btn.Height = CHBUTTON_RET_H;
000046  201e              MOVS     r0,#0x1e
000048  80c8              STRH     r0,[r1,#6]
;;;428    	CH2Btn.Width = CHBUTTON_RET_W;
00004a  8108              STRH     r0,[r1,#8]
;;;429    	CH2Btn.Focus = 1;	/* 焦点 */
00004c  2001              MOVS     r0,#1
00004e  7508              STRB     r0,[r1,#0x14]
;;;430    	strcpy(ch,"2");							
000050  4849              LDR      r0,|L5.376|
000052  a14c              ADR      r1,|L5.388|
000054  8809              LDRH     r1,[r1,#0]
000056  8001              STRH     r1,[r0,#0]
;;;431    	CH2Btn.pCaption = ch;
000058  4949              LDR      r1,|L5.384|
00005a  6108              STR      r0,[r1,#0x10]  ; CH2Btn
;;;432    	LCD_DrawButton(&CH2Btn);
00005c  4608              MOV      r0,r1
00005e  f7fffffe          BL       LCD_DrawButton
;;;433    	
;;;434    	LCD_DrawRect(CH1_RET_X,CH1_RET_Y,CH_RET_H,CH_RET_W,CL_BLACK);
000062  2000              MOVS     r0,#0
000064  f44f73e1          MOV      r3,#0x1c2
000068  2246              MOVS     r2,#0x46
00006a  2178              MOVS     r1,#0x78
00006c  9000              STR      r0,[sp,#0]
00006e  f44f7096          MOV      r0,#0x12c
000072  f7fffffe          BL       LCD_DrawRect
;;;435    	LCD_DrawRect(CH2_RET_X,CH2_RET_Y,CH_RET_H,CH_RET_W,CL_BLACK);
000076  2000              MOVS     r0,#0
000078  f44f73e1          MOV      r3,#0x1c2
00007c  2246              MOVS     r2,#0x46
00007e  21f0              MOVS     r1,#0xf0
000080  9000              STR      r0,[sp,#0]
000082  f44f7096          MOV      r0,#0x12c
000086  f7fffffe          BL       LCD_DrawRect
;;;436    	LCD_DrawRect(NAME1_RET_X,NAME1_RET_Y,NAME_RET_H,NAME_RET_W,CL_BLACK);
00008a  2000              MOVS     r0,#0
00008c  2382              MOVS     r3,#0x82
00008e  221e              MOVS     r2,#0x1e
000090  2178              MOVS     r1,#0x78
000092  9000              STR      r0,[sp,#0]
000094  4608              MOV      r0,r1
000096  f7fffffe          BL       LCD_DrawRect
;;;437    	LCD_DrawRect(NAME2_RET_X,NAME2_RET_Y,NAME_RET_H,NAME_RET_W,CL_BLACK);
00009a  2000              MOVS     r0,#0
00009c  2382              MOVS     r3,#0x82
00009e  221e              MOVS     r2,#0x1e
0000a0  21f0              MOVS     r1,#0xf0
0000a2  9000              STR      r0,[sp,#0]
0000a4  2078              MOVS     r0,#0x78
0000a6  f7fffffe          BL       LCD_DrawRect
;;;438    	for(i=0;i<9;i++)
0000aa  2400              MOVS     r4,#0
0000ac  e01a              B        |L5.228|
                  |L5.174|
;;;439    	{
;;;440    		LCD_DrawRect(BAR1_RET_X+(BAR_RET_W-1)*i,BAR1_RET_Y,BAR_RET_H,BAR_RET_W,CL_BLACK);
0000ae  2000              MOVS     r0,#0
0000b0  2216              MOVS     r2,#0x16
0000b2  fb04f102          MUL      r1,r4,r2
0000b6  9000              STR      r0,[sp,#0]
0000b8  f1010032          ADD      r0,r1,#0x32
0000bc  2317              MOVS     r3,#0x17
0000be  2214              MOVS     r2,#0x14
0000c0  21aa              MOVS     r1,#0xaa
0000c2  f7fffffe          BL       LCD_DrawRect
;;;441    		LCD_DrawRect(BAR2_RET_X+(BAR_RET_W-1)*i,BAR2_RET_Y,BAR_RET_H,BAR_RET_W,CL_BLACK);	
0000c6  2000              MOVS     r0,#0
0000c8  2216              MOVS     r2,#0x16
0000ca  fb04f102          MUL      r1,r4,r2
0000ce  9000              STR      r0,[sp,#0]
0000d0  f1010032          ADD      r0,r1,#0x32
0000d4  2317              MOVS     r3,#0x17
0000d6  2214              MOVS     r2,#0x14
0000d8  f44f7191          MOV      r1,#0x122
0000dc  f7fffffe          BL       LCD_DrawRect
0000e0  1c60              ADDS     r0,r4,#1              ;438
0000e2  b2c4              UXTB     r4,r0                 ;438
                  |L5.228|
0000e4  2c09              CMP      r4,#9                 ;438
0000e6  dbe2              BLT      |L5.174|
;;;442    	}	
;;;443    	LCD_DispStr(50, 60, "通道号", &tFontBtnCh1);//
0000e8  4b21              LDR      r3,|L5.368|
0000ea  a227              ADR      r2,|L5.392|
0000ec  213c              MOVS     r1,#0x3c
0000ee  2032              MOVS     r0,#0x32
0000f0  f7fffffe          BL       LCD_DispStr
;;;444    	LCD_DispStr(160, 60, "姓名", &tFontBtnCh1);//
0000f4  4b1e              LDR      r3,|L5.368|
0000f6  a226              ADR      r2,|L5.400|
0000f8  213c              MOVS     r1,#0x3c
0000fa  20a0              MOVS     r0,#0xa0
0000fc  f7fffffe          BL       LCD_DispStr
;;;445    	LCD_DispStr(475, 60, "检测结果", &tFontBtnCh1);//
000100  4b1b              LDR      r3,|L5.368|
000102  a225              ADR      r2,|L5.408|
000104  213c              MOVS     r1,#0x3c
000106  f24010db          MOV      r0,#0x1db
00010a  f7fffffe          BL       LCD_DispStr
;;;446    	
;;;447    	tBtn.Font = &tFontBtn;
00010e  4825              LDR      r0,|L5.420|
000110  4925              LDR      r1,|L5.424|
000112  60c8              STR      r0,[r1,#0xc]  ; tBtn
;;;448    	tBtn.Left = BUTTON_RET_X;
000114  2032              MOVS     r0,#0x32
000116  8048              STRH     r0,[r1,#2]
;;;449    	tBtn.Top = BUTTON_RET_Y;
000118  f44f70b4          MOV      r0,#0x168
00011c  8088              STRH     r0,[r1,#4]
;;;450    	tBtn.Height = BUTTON_RET_H;
00011e  202d              MOVS     r0,#0x2d
000120  80c8              STRH     r0,[r1,#6]
;;;451    	tBtn.Width = BUTTON_RET_W;
000122  205a              MOVS     r0,#0x5a
000124  8108              STRH     r0,[r1,#8]
;;;452    	tBtn.Focus = 0;	/* 失去焦点 */
000126  2000              MOVS     r0,#0
000128  7508              STRB     r0,[r1,#0x14]
;;;453    	strcpy(ch,"测量");
00012a  a120              ADR      r1,|L5.428|
00012c  4812              LDR      r0,|L5.376|
00012e  f7fffffe          BL       strcpy
;;;454    	tBtn.pCaption = ch;
000132  4811              LDR      r0,|L5.376|
000134  491c              LDR      r1,|L5.424|
000136  6108              STR      r0,[r1,#0x10]  ; tBtn
;;;455    	LCD_DrawButton(&tBtn);
000138  4608              MOV      r0,r1
00013a  f7fffffe          BL       LCD_DrawButton
;;;456    	tBtn1.Font = &tFontBtn;
00013e  4819              LDR      r0,|L5.420|
000140  491c              LDR      r1,|L5.436|
000142  60c8              STR      r0,[r1,#0xc]  ; tBtn1
;;;457    	tBtn1.Left = RETURN_RET_X;
000144  20a0              MOVS     r0,#0xa0
000146  8048              STRH     r0,[r1,#2]
;;;458    	tBtn1.Top = RETURN_RET_Y;
000148  f44f70b4          MOV      r0,#0x168
00014c  8088              STRH     r0,[r1,#4]
;;;459    	tBtn1.Height = RETURN_RET_H;
00014e  202d              MOVS     r0,#0x2d
000150  80c8              STRH     r0,[r1,#6]
;;;460    	tBtn1.Width = RETURN_RET_W;
000152  205a              MOVS     r0,#0x5a
000154  8108              STRH     r0,[r1,#8]
;;;461    	tBtn1.Focus = 0;	/* 失去焦点 */
000156  2000              MOVS     r0,#0
000158  7508              STRB     r0,[r1,#0x14]
;;;462    	strcpy(ch,"返回");
00015a  a117              ADR      r1,|L5.440|
00015c  4806              LDR      r0,|L5.376|
00015e  f7fffffe          BL       strcpy
;;;463    	tBtn1.pCaption = ch;
000162  4805              LDR      r0,|L5.376|
000164  4913              LDR      r1,|L5.436|
000166  6108              STR      r0,[r1,#0x10]  ; tBtn1
;;;464    	LCD_DrawButton(&tBtn1);
000168  4608              MOV      r0,r1
00016a  f7fffffe          BL       LCD_DrawButton
;;;465    }
00016e  bd38              POP      {r3-r5,pc}
;;;466    void MainTask(void)
                          ENDP

                  |L5.368|
                          DCD      tFontBtnCh1
                  |L5.372|
                          DCD      CH1Btn
                  |L5.376|
                          DCD      ||ch||
                  |L5.380|
00017c  3100              DCB      "1",0
00017e  00                DCB      0
00017f  00                DCB      0
                  |L5.384|
                          DCD      CH2Btn
                  |L5.388|
000184  3200              DCB      "2",0
000186  00                DCB      0
000187  00                DCB      0
                  |L5.392|
000188  cda8b5c0          DCB      205,168,181,192,186,197,0
00018c  bac500  
00018f  00                DCB      0
                  |L5.400|
000190  d0d5c3fb          DCB      208,213,195,251,0
000194  00      
000195  00                DCB      0
000196  00                DCB      0
000197  00                DCB      0
                  |L5.408|
000198  bcecb2e2          DCB      188,236,178,226,189,225,185,251,0
00019c  bde1b9fb
0001a0  00      
0001a1  00                DCB      0
0001a2  00                DCB      0
0001a3  00                DCB      0
                  |L5.420|
                          DCD      tFontBtn
                  |L5.424|
                          DCD      tBtn
                  |L5.428|
0001ac  b2e2c1bf          DCB      178,226,193,191,0
0001b0  00      
0001b1  00                DCB      0
0001b2  00                DCB      0
0001b3  00                DCB      0
                  |L5.436|
                          DCD      tBtn1
                  |L5.440|
0001b8  b7b5bbd8          DCB      183,181,187,216,0
0001bc  00      
0001bd  00                DCB      0
0001be  00                DCB      0
0001bf  00                DCB      0

                          AREA ||i.MainTask||, CODE, READONLY, ALIGN=2

                  MainTask PROC
;;;465    }
;;;466    void MainTask(void)
000000  e92d41fc          PUSH     {r2-r8,lr}
;;;467    {
;;;468    	uint8_t i,j;		
;;;469    	uint8_t fRefresh,fMeasurement=1;		/* 刷屏请求标志,1表示需要刷新 */
000004  2701              MOVS     r7,#1
;;;470    	uint16_t fProgess=0;
000006  2600              MOVS     r6,#0
;;;471    	{	/* 按钮字体 */
;;;472    		tFontBtn.FontCode = FC_ST_24;
000008  2002              MOVS     r0,#2
00000a  49fd              LDR      r1,|L6.1024|
00000c  8008              STRH     r0,[r1,#0]
;;;473    		tFontBtn.BackColor = CL_MASK;	/* 透明色 */
00000e  f6491099          MOV      r0,#0x9999
000012  8088              STRH     r0,[r1,#4]
;;;474    		tFontBtn.FrontColor = CL_BLACK;
000014  2000              MOVS     r0,#0
000016  8048              STRH     r0,[r1,#2]
;;;475    		tFontBtn.Space = 1;
000018  2001              MOVS     r0,#1
00001a  80c8              STRH     r0,[r1,#6]
;;;476    	}
;;;477    	{	/* 按钮字体 */
;;;478    		tFontBtnCh1.FontCode = FC_ST_24;
00001c  2002              MOVS     r0,#2
00001e  49f9              LDR      r1,|L6.1028|
000020  8008              STRH     r0,[r1,#0]
;;;479    		tFontBtnCh1.BackColor = CL_MASK;	/* 透明色 */
000022  f6491099          MOV      r0,#0x9999
000026  8088              STRH     r0,[r1,#4]
;;;480    		tFontBtnCh1.FrontColor = CL_BLACK;
000028  2000              MOVS     r0,#0
00002a  8048              STRH     r0,[r1,#2]
;;;481    		tFontBtnCh1.Space = 1;
00002c  2001              MOVS     r0,#1
00002e  80c8              STRH     r0,[r1,#6]
;;;482    	}
;;;483    	Dis_Measurement();
000030  f7fffffe          BL       Dis_Measurement
;;;484    	fRefresh = 1;	/* 1表示需要刷新LCD */
000034  f04f0801          MOV      r8,#1
;;;485    	while (fMeasurement)
000038  e235              B        |L6.1190|
                  |L6.58|
;;;486    	{
;;;487    		bsp_Idle();	
00003a  f7fffffe          BL       bsp_Idle
;;;488    		if(fButton)
00003e  48f2              LDR      r0,|L6.1032|
000040  7800              LDRB     r0,[r0,#0]  ; fButton
000042  2800              CMP      r0,#0
000044  d06d              BEQ      |L6.290|
;;;489    		{		
;;;490    			j=1;
000046  2501              MOVS     r5,#1
;;;491    			for(;j<10;j++)
000048  e068              B        |L6.284|
                  |L6.74|
;;;492    			{			
;;;493    				fProgess+=BAR_RET_W-1;
00004a  f1060016          ADD      r0,r6,#0x16
00004e  b286              UXTH     r6,r0
;;;494    				checkChannel=1;
000050  2001              MOVS     r0,#1
000052  49ee              LDR      r1,|L6.1036|
000054  7008              STRB     r0,[r1,#0]
;;;495    				LCD_Fill_Rect(BAR1_RET_X+1,BAR1_RET_Y+1,BAR_RET_H-2,fProgess-1,CL_GREEN);
000056  f44f60fc          MOV      r0,#0x7e0
00005a  9000              STR      r0,[sp,#0]
00005c  1e70              SUBS     r0,r6,#1
00005e  b283              UXTH     r3,r0
000060  2212              MOVS     r2,#0x12
000062  21ab              MOVS     r1,#0xab
000064  2033              MOVS     r0,#0x33
000066  f7fffffe          BL       LCD_Fill_Rect
;;;496    				ChannelMeas(checkChannel*10+j);
00006a  49e8              LDR      r1,|L6.1036|
00006c  7809              LDRB     r1,[r1,#0]  ; checkChannel
00006e  eb010181          ADD      r1,r1,r1,LSL #2
000072  eb050141          ADD      r1,r5,r1,LSL #1
000076  b2c8              UXTB     r0,r1
000078  f7fffffe          BL       ChannelMeas
;;;497    				if(m_bMeasureBreak||fButton==0)
00007c  48e4              LDR      r0,|L6.1040|
00007e  7800              LDRB     r0,[r0,#0]  ; m_bMeasureBreak
000080  b918              CBNZ     r0,|L6.138|
000082  48e1              LDR      r0,|L6.1032|
000084  7800              LDRB     r0,[r0,#0]  ; fButton
000086  2800              CMP      r0,#0
000088  d146              BNE      |L6.280|
                  |L6.138|
;;;498    				{
;;;499    					tBtn.Font = &tFontBtn;
00008a  48dd              LDR      r0,|L6.1024|
00008c  49e1              LDR      r1,|L6.1044|
00008e  60c8              STR      r0,[r1,#0xc]  ; tBtn
;;;500    					tBtn.Left = BUTTON_RET_X;
000090  2032              MOVS     r0,#0x32
000092  8048              STRH     r0,[r1,#2]
;;;501    					tBtn.Top = BUTTON_RET_Y;
000094  f44f70b4          MOV      r0,#0x168
000098  8088              STRH     r0,[r1,#4]
;;;502    					tBtn.Height = BUTTON_RET_H;
00009a  202d              MOVS     r0,#0x2d
00009c  80c8              STRH     r0,[r1,#6]
;;;503    					tBtn.Width = BUTTON_RET_W;
00009e  205a              MOVS     r0,#0x5a
0000a0  8108              STRH     r0,[r1,#8]
;;;504    					tBtn.Focus = 0;	/* 焦点 */
0000a2  2000              MOVS     r0,#0
0000a4  7508              STRB     r0,[r1,#0x14]
;;;505    					strcpy(ch,"测量");							
0000a6  a1dc              ADR      r1,|L6.1048|
0000a8  48dd              LDR      r0,|L6.1056|
0000aa  f7fffffe          BL       strcpy
;;;506    					tBtn.pCaption = ch;
0000ae  48dc              LDR      r0,|L6.1056|
0000b0  49d8              LDR      r1,|L6.1044|
0000b2  6108              STR      r0,[r1,#0x10]  ; tBtn
;;;507    					LCD_DrawButton(&tBtn);
0000b4  4608              MOV      r0,r1
0000b6  f7fffffe          BL       LCD_DrawButton
;;;508    					LCD_Fill_Rect(BAR1_RET_X,BAR1_RET_Y,BAR_RET_H,200,CL_WHITE);
0000ba  f64f70ff          MOV      r0,#0xffff
0000be  23c8              MOVS     r3,#0xc8
0000c0  2214              MOVS     r2,#0x14
0000c2  21aa              MOVS     r1,#0xaa
0000c4  9000              STR      r0,[sp,#0]
0000c6  2032              MOVS     r0,#0x32
0000c8  f7fffffe          BL       LCD_Fill_Rect
;;;509    					for(i=0;i<9;i++)
0000cc  2400              MOVS     r4,#0
0000ce  e01a              B        |L6.262|
                  |L6.208|
;;;510    					{
;;;511    						LCD_DrawRect(BAR1_RET_X+(BAR_RET_W-1)*i,BAR1_RET_Y,BAR_RET_H,BAR_RET_W,CL_BLACK);
0000d0  2000              MOVS     r0,#0
0000d2  2216              MOVS     r2,#0x16
0000d4  fb04f102          MUL      r1,r4,r2
0000d8  9000              STR      r0,[sp,#0]
0000da  f1010032          ADD      r0,r1,#0x32
0000de  2317              MOVS     r3,#0x17
0000e0  2214              MOVS     r2,#0x14
0000e2  21aa              MOVS     r1,#0xaa
0000e4  f7fffffe          BL       LCD_DrawRect
;;;512    						LCD_DrawRect(BAR2_RET_X+(BAR_RET_W-1)*i,BAR2_RET_Y,BAR_RET_H,BAR_RET_W,CL_BLACK);	
0000e8  2000              MOVS     r0,#0
0000ea  2216              MOVS     r2,#0x16
0000ec  fb04f102          MUL      r1,r4,r2
0000f0  9000              STR      r0,[sp,#0]
0000f2  f1010032          ADD      r0,r1,#0x32
0000f6  2317              MOVS     r3,#0x17
0000f8  2214              MOVS     r2,#0x14
0000fa  f44f7191          MOV      r1,#0x122
0000fe  f7fffffe          BL       LCD_DrawRect
000102  1c60              ADDS     r0,r4,#1              ;509
000104  b2c4              UXTB     r4,r0                 ;509
                  |L6.262|
000106  2c09              CMP      r4,#9                 ;509
000108  dbe2              BLT      |L6.208|
;;;513    					}
;;;514    					fProgess=0;
00010a  2600              MOVS     r6,#0
;;;515    					m_bMeasureBreak=0;
00010c  2000              MOVS     r0,#0
00010e  49c0              LDR      r1,|L6.1040|
000110  7008              STRB     r0,[r1,#0]
;;;516    					fButton=0;
000112  49bd              LDR      r1,|L6.1032|
000114  7008              STRB     r0,[r1,#0]
;;;517    					break;
000116  e003              B        |L6.288|
                  |L6.280|
000118  1c68              ADDS     r0,r5,#1              ;491
00011a  b2c5              UXTB     r5,r0                 ;491
                  |L6.284|
00011c  2d0a              CMP      r5,#0xa               ;491
00011e  db94              BLT      |L6.74|
                  |L6.288|
000120  bf00              NOP      
                  |L6.290|
;;;518    				}	
;;;519    			}				
;;;520    		}
;;;521    		if(dis_keyboard)
000122  48c0              LDR      r0,|L6.1060|
000124  7800              LDRB     r0,[r0,#0]  ; dis_keyboard
000126  b388              CBZ      r0,|L6.396|
;;;522    		{
;;;523    			LCD_ClrScr(CL_WHITE);  		/* 清屏，【背景白色 */
000128  f64f70ff          MOV      r0,#0xffff
00012c  f7fffffe          BL       LCD_ClrScr
;;;524    			LCD_Fill_Rect(0,0,450,800,M_BACKGROUND_COLOR);
000130  f64f70ff          MOV      r0,#0xffff
000134  f44f7348          MOV      r3,#0x320
000138  f44f72e1          MOV      r2,#0x1c2
00013c  2100              MOVS     r1,#0
00013e  9000              STR      r0,[sp,#0]
000140  4608              MOV      r0,r1
000142  f7fffffe          BL       LCD_Fill_Rect
;;;525    			keyboard();
000146  f7fffffe          BL       keyboard
;;;526    			while(dis_keyboard)
00014a  e001              B        |L6.336|
                  |L6.332|
;;;527    			{
;;;528    				typewriting();
00014c  f7fffffe          BL       typewriting
                  |L6.336|
000150  48b4              LDR      r0,|L6.1060|
000152  7800              LDRB     r0,[r0,#0]            ;526  ; dis_keyboard
000154  2800              CMP      r0,#0                 ;526
000156  d1f9              BNE      |L6.332|
;;;529    			}
;;;530    			Dis_Measurement();
000158  f7fffffe          BL       Dis_Measurement
;;;531    			if(F_name)
00015c  48b2              LDR      r0,|L6.1064|
00015e  7800              LDRB     r0,[r0,#0]  ; F_name
000160  b120              CBZ      r0,|L6.364|
;;;532    			{
;;;533    				strcpy(name1,s_Textbuf);				
000162  49b2              LDR      r1,|L6.1068|
000164  48b2              LDR      r0,|L6.1072|
000166  f7fffffe          BL       strcpy
00016a  e003              B        |L6.372|
                  |L6.364|
;;;534    			}
;;;535    			else
;;;536    			{
;;;537    				strcpy(name2,s_Textbuf);				
00016c  49af              LDR      r1,|L6.1068|
00016e  48b1              LDR      r0,|L6.1076|
000170  f7fffffe          BL       strcpy
                  |L6.372|
;;;538    			}
;;;539    			LCD_DispStr(NAME1_RET_X+10, NAME1_RET_Y+3, name1, &tFontBtnCh1);//显示选择的汉字	
000174  4ba3              LDR      r3,|L6.1028|
000176  4aae              LDR      r2,|L6.1072|
000178  217b              MOVS     r1,#0x7b
00017a  2082              MOVS     r0,#0x82
00017c  f7fffffe          BL       LCD_DispStr
;;;540    			LCD_DispStr(NAME2_RET_X+10, NAME2_RET_Y+3, name2, &tFontBtnCh1);//显示选择的汉字	
000180  4ba0              LDR      r3,|L6.1028|
000182  4aac              LDR      r2,|L6.1076|
000184  21f3              MOVS     r1,#0xf3
000186  2082              MOVS     r0,#0x82
000188  f7fffffe          BL       LCD_DispStr
                  |L6.396|
;;;541    		}
;;;542    		ucTouch = TOUCH_GetKey(&tpX, &tpY);	/* 读取触摸事件 */
00018c  49aa              LDR      r1,|L6.1080|
00018e  48ab              LDR      r0,|L6.1084|
000190  f7fffffe          BL       TOUCH_GetKey
000194  49aa              LDR      r1,|L6.1088|
000196  7008              STRB     r0,[r1,#0]
;;;543    		if (ucTouch != TOUCH_NONE)
000198  4608              MOV      r0,r1
00019a  7800              LDRB     r0,[r0,#0]  ; ucTouch
00019c  2800              CMP      r0,#0
00019e  d06f              BEQ      |L6.640|
;;;544    		{
;;;545    			switch (ucTouch)
0001a0  4608              MOV      r0,r1
0001a2  7800              LDRB     r0,[r0,#0]  ; ucTouch
0001a4  2801              CMP      r0,#1
0001a6  d002              BEQ      |L6.430|
0001a8  2803              CMP      r0,#3
0001aa  d143              BNE      |L6.564|
0001ac  e043              B        |L6.566|
                  |L6.430|
;;;546    			{
;;;547    				case TOUCH_DOWN:		/* 触笔按下事件 */
;;;548    					if (TOUCH_InRect(tpX, tpY, BUTTON_RET_X, BUTTON_RET_Y, BUTTON_RET_H, BUTTON_RET_W))
0001ae  205a              MOVS     r0,#0x5a
0001b0  212d              MOVS     r1,#0x2d
0001b2  4aa1              LDR      r2,|L6.1080|
0001b4  e9cd1000          STRD     r1,r0,[sp,#0]
0001b8  8812              LDRH     r2,[r2,#0]  ; tpY
0001ba  b291              UXTH     r1,r2
0001bc  4a9f              LDR      r2,|L6.1084|
0001be  8812              LDRH     r2,[r2,#0]  ; tpX
0001c0  b290              UXTH     r0,r2
0001c2  f44f73b4          MOV      r3,#0x168
0001c6  2232              MOVS     r2,#0x32
0001c8  f7fffffe          BL       TOUCH_InRect
0001cc  b1a8              CBZ      r0,|L6.506|
;;;549    					{
;;;550    						tBtn.Focus = 1;	/* 焦点 */
0001ce  2001              MOVS     r0,#1
0001d0  4990              LDR      r1,|L6.1044|
0001d2  7508              STRB     r0,[r1,#0x14]
;;;551    						if(fButton==0)
0001d4  488c              LDR      r0,|L6.1032|
0001d6  7800              LDRB     r0,[r0,#0]  ; fButton
0001d8  b920              CBNZ     r0,|L6.484|
;;;552    						{
;;;553    							strcpy(ch,"测量");
0001da  a18f              ADR      r1,|L6.1048|
0001dc  4890              LDR      r0,|L6.1056|
0001de  f7fffffe          BL       strcpy
0001e2  e003              B        |L6.492|
                  |L6.484|
;;;554    						}
;;;555    						else
;;;556    						{
;;;557    							strcpy(ch,"停止");
0001e4  a197              ADR      r1,|L6.1092|
0001e6  488e              LDR      r0,|L6.1056|
0001e8  f7fffffe          BL       strcpy
                  |L6.492|
;;;558    						}
;;;559    						tBtn.pCaption = ch;
0001ec  488c              LDR      r0,|L6.1056|
0001ee  4989              LDR      r1,|L6.1044|
0001f0  6108              STR      r0,[r1,#0x10]  ; tBtn
;;;560    						LCD_DrawButton(&tBtn);				
0001f2  4608              MOV      r0,r1
0001f4  f7fffffe          BL       LCD_DrawButton
0001f8  e01c              B        |L6.564|
                  |L6.506|
;;;561    					}
;;;562    					else if (TOUCH_InRect(tpX, tpY, RETURN_RET_X, RETURN_RET_Y, RETURN_RET_H, RETURN_RET_W))
0001fa  205a              MOVS     r0,#0x5a
0001fc  212d              MOVS     r1,#0x2d
0001fe  4a8e              LDR      r2,|L6.1080|
000200  e9cd1000          STRD     r1,r0,[sp,#0]
000204  8812              LDRH     r2,[r2,#0]  ; tpY
000206  b291              UXTH     r1,r2
000208  4a8c              LDR      r2,|L6.1084|
00020a  8812              LDRH     r2,[r2,#0]  ; tpX
00020c  b290              UXTH     r0,r2
00020e  f44f73b4          MOV      r3,#0x168
000212  22a0              MOVS     r2,#0xa0
000214  f7fffffe          BL       TOUCH_InRect
000218  b160              CBZ      r0,|L6.564|
;;;563    					{
;;;564    						tBtn1.Focus = 1;	/* 焦点 */
00021a  2001              MOVS     r0,#1
00021c  498b              LDR      r1,|L6.1100|
00021e  7508              STRB     r0,[r1,#0x14]
;;;565    						strcpy(ch,"返回");
000220  a18b              ADR      r1,|L6.1104|
000222  487f              LDR      r0,|L6.1056|
000224  f7fffffe          BL       strcpy
;;;566    						tBtn1.pCaption = ch;
000228  487d              LDR      r0,|L6.1056|
00022a  4988              LDR      r1,|L6.1100|
00022c  6108              STR      r0,[r1,#0x10]  ; tBtn1
;;;567    						LCD_DrawButton(&tBtn1);
00022e  4608              MOV      r0,r1
000230  f7fffffe          BL       LCD_DrawButton
                  |L6.564|
;;;568    									
;;;569    					}			
;;;570    					break;
000234  e136              B        |L6.1188|
                  |L6.566|
;;;571    
;;;572    				case TOUCH_RELEASE:		/* 触笔释放事件 */
;;;573    					if (TOUCH_InRect(tpX, tpY, BUTTON_RET_X, BUTTON_RET_Y, BUTTON_RET_H, BUTTON_RET_W))
000236  205a              MOVS     r0,#0x5a
000238  212d              MOVS     r1,#0x2d
00023a  4a7f              LDR      r2,|L6.1080|
00023c  e9cd1000          STRD     r1,r0,[sp,#0]
000240  8812              LDRH     r2,[r2,#0]  ; tpY
000242  b291              UXTH     r1,r2
000244  4a7d              LDR      r2,|L6.1084|
000246  8812              LDRH     r2,[r2,#0]  ; tpX
000248  b290              UXTH     r0,r2
00024a  f44f73b4          MOV      r3,#0x168
00024e  2232              MOVS     r2,#0x32
000250  f7fffffe          BL       TOUCH_InRect
000254  2800              CMP      r0,#0
000256  d052              BEQ      |L6.766|
;;;574    					{
;;;575    						if(fButton==0)
000258  486b              LDR      r0,|L6.1032|
00025a  7800              LDRB     r0,[r0,#0]  ; fButton
00025c  b988              CBNZ     r0,|L6.642|
;;;576    						{
;;;577    							fButton=1;
00025e  2001              MOVS     r0,#1
000260  4969              LDR      r1,|L6.1032|
000262  7008              STRB     r0,[r1,#0]
;;;578    							tBtn.Focus = 0;	/* 焦点 */
000264  2000              MOVS     r0,#0
000266  496b              LDR      r1,|L6.1044|
000268  7508              STRB     r0,[r1,#0x14]
;;;579    							strcpy(ch,"停止");
00026a  a176              ADR      r1,|L6.1092|
00026c  486c              LDR      r0,|L6.1056|
00026e  f7fffffe          BL       strcpy
;;;580    							tBtn.pCaption = ch;
000272  486b              LDR      r0,|L6.1056|
000274  4967              LDR      r1,|L6.1044|
000276  6108              STR      r0,[r1,#0x10]  ; tBtn
;;;581    							LCD_DrawButton(&tBtn);
000278  4608              MOV      r0,r1
00027a  f7fffffe          BL       LCD_DrawButton
00027e  e111              B        |L6.1188|
                  |L6.640|
000280  e111              B        |L6.1190|
                  |L6.642|
;;;582    						}
;;;583    						else 
;;;584    						{
;;;585    							fButton=0;
000282  2000              MOVS     r0,#0
000284  4960              LDR      r1,|L6.1032|
000286  7008              STRB     r0,[r1,#0]
;;;586    							tBtn.Focus = 0;	/* 焦点 */
000288  4962              LDR      r1,|L6.1044|
00028a  7508              STRB     r0,[r1,#0x14]
;;;587    							strcpy(ch,"测量");
00028c  a162              ADR      r1,|L6.1048|
00028e  4864              LDR      r0,|L6.1056|
000290  f7fffffe          BL       strcpy
;;;588    							tBtn.pCaption = ch;
000294  4862              LDR      r0,|L6.1056|
000296  495f              LDR      r1,|L6.1044|
000298  6108              STR      r0,[r1,#0x10]  ; tBtn
;;;589    							LCD_DrawButton(&tBtn);
00029a  4608              MOV      r0,r1
00029c  f7fffffe          BL       LCD_DrawButton
;;;590    							LCD_Fill_Rect(BAR1_RET_X,BAR1_RET_Y,BAR_RET_H,200,CL_WHITE);
0002a0  f64f70ff          MOV      r0,#0xffff
0002a4  23c8              MOVS     r3,#0xc8
0002a6  2214              MOVS     r2,#0x14
0002a8  21aa              MOVS     r1,#0xaa
0002aa  9000              STR      r0,[sp,#0]
0002ac  2032              MOVS     r0,#0x32
0002ae  f7fffffe          BL       LCD_Fill_Rect
;;;591    							for(i=0;i<9;i++)
0002b2  2400              MOVS     r4,#0
0002b4  e01a              B        |L6.748|
                  |L6.694|
;;;592    							{
;;;593    								LCD_DrawRect(BAR1_RET_X+(BAR_RET_W-1)*i,BAR1_RET_Y,BAR_RET_H,BAR_RET_W,CL_BLACK);
0002b6  2000              MOVS     r0,#0
0002b8  2216              MOVS     r2,#0x16
0002ba  fb04f102          MUL      r1,r4,r2
0002be  9000              STR      r0,[sp,#0]
0002c0  f1010032          ADD      r0,r1,#0x32
0002c4  2317              MOVS     r3,#0x17
0002c6  2214              MOVS     r2,#0x14
0002c8  21aa              MOVS     r1,#0xaa
0002ca  f7fffffe          BL       LCD_DrawRect
;;;594    								LCD_DrawRect(BAR2_RET_X+(BAR_RET_W-1)*i,BAR2_RET_Y,BAR_RET_H,BAR_RET_W,CL_BLACK);	
0002ce  2000              MOVS     r0,#0
0002d0  2216              MOVS     r2,#0x16
0002d2  fb04f102          MUL      r1,r4,r2
0002d6  9000              STR      r0,[sp,#0]
0002d8  f1010032          ADD      r0,r1,#0x32
0002dc  2317              MOVS     r3,#0x17
0002de  2214              MOVS     r2,#0x14
0002e0  f44f7191          MOV      r1,#0x122
0002e4  f7fffffe          BL       LCD_DrawRect
0002e8  1c60              ADDS     r0,r4,#1              ;591
0002ea  b2c4              UXTB     r4,r0                 ;591
                  |L6.748|
0002ec  2c09              CMP      r4,#9                 ;591
0002ee  dbe2              BLT      |L6.694|
;;;595    							}
;;;596    							fProgess=0;
0002f0  2600              MOVS     r6,#0
;;;597    							m_bMeasureBreak=0;
0002f2  2000              MOVS     r0,#0
0002f4  4946              LDR      r1,|L6.1040|
0002f6  7008              STRB     r0,[r1,#0]
;;;598    							fButton=0;
0002f8  4943              LDR      r1,|L6.1032|
0002fa  7008              STRB     r0,[r1,#0]
0002fc  e0d2              B        |L6.1188|
                  |L6.766|
;;;599    						}
;;;600    					}
;;;601    					else if (TOUCH_InRect(tpX, tpY, RETURN_RET_X, RETURN_RET_Y, RETURN_RET_H, RETURN_RET_W))
0002fe  205a              MOVS     r0,#0x5a
000300  212d              MOVS     r1,#0x2d
000302  4a4d              LDR      r2,|L6.1080|
000304  e9cd1000          STRD     r1,r0,[sp,#0]
000308  8812              LDRH     r2,[r2,#0]  ; tpY
00030a  b291              UXTH     r1,r2
00030c  4a4b              LDR      r2,|L6.1084|
00030e  8812              LDRH     r2,[r2,#0]  ; tpX
000310  b290              UXTH     r0,r2
000312  f44f73b4          MOV      r3,#0x168
000316  22a0              MOVS     r2,#0xa0
000318  f7fffffe          BL       TOUCH_InRect
00031c  b170              CBZ      r0,|L6.828|
;;;602    					{
;;;603    						tBtn1.Focus = 0;	/* 焦点 */
00031e  2000              MOVS     r0,#0
000320  494a              LDR      r1,|L6.1100|
000322  7508              STRB     r0,[r1,#0x14]
;;;604    						strcpy(ch,"返回");
000324  a14a              ADR      r1,|L6.1104|
000326  483e              LDR      r0,|L6.1056|
000328  f7fffffe          BL       strcpy
;;;605    						tBtn1.pCaption = ch;
00032c  483c              LDR      r0,|L6.1056|
00032e  4947              LDR      r1,|L6.1100|
000330  6108              STR      r0,[r1,#0x10]  ; tBtn1
;;;606    						LCD_DrawButton(&tBtn1);	
000332  4608              MOV      r0,r1
000334  f7fffffe          BL       LCD_DrawButton
;;;607    						fMeasurement=0;										
000338  2700              MOVS     r7,#0
00033a  e0b3              B        |L6.1188|
                  |L6.828|
;;;608    					}
;;;609    					else if(TOUCH_InRect(tpX, tpY, NAME1_RET_X, NAME1_RET_Y, NAME_RET_H, NAME_RET_W))
00033c  2082              MOVS     r0,#0x82
00033e  211e              MOVS     r1,#0x1e
000340  4a3d              LDR      r2,|L6.1080|
000342  e9cd1000          STRD     r1,r0,[sp,#0]
000346  8812              LDRH     r2,[r2,#0]  ; tpY
000348  b291              UXTH     r1,r2
00034a  4a3c              LDR      r2,|L6.1084|
00034c  8812              LDRH     r2,[r2,#0]  ; tpX
00034e  b290              UXTH     r0,r2
000350  2378              MOVS     r3,#0x78
000352  461a              MOV      r2,r3
000354  f7fffffe          BL       TOUCH_InRect
000358  b128              CBZ      r0,|L6.870|
;;;610    					{
;;;611    						dis_keyboard=1;
00035a  2001              MOVS     r0,#1
00035c  4931              LDR      r1,|L6.1060|
00035e  7008              STRB     r0,[r1,#0]
;;;612    						F_name=1;
000360  4931              LDR      r1,|L6.1064|
000362  7008              STRB     r0,[r1,#0]
000364  e09e              B        |L6.1188|
                  |L6.870|
;;;613    					}
;;;614    					else if(TOUCH_InRect(tpX, tpY, NAME2_RET_X, NAME2_RET_Y, NAME_RET_H, NAME_RET_W))
000366  2082              MOVS     r0,#0x82
000368  211e              MOVS     r1,#0x1e
00036a  4a33              LDR      r2,|L6.1080|
00036c  e9cd1000          STRD     r1,r0,[sp,#0]
000370  8812              LDRH     r2,[r2,#0]  ; tpY
000372  b291              UXTH     r1,r2
000374  4a31              LDR      r2,|L6.1084|
000376  8812              LDRH     r2,[r2,#0]  ; tpX
000378  b290              UXTH     r0,r2
00037a  23f0              MOVS     r3,#0xf0
00037c  2278              MOVS     r2,#0x78
00037e  f7fffffe          BL       TOUCH_InRect
000382  b130              CBZ      r0,|L6.914|
;;;615    					{
;;;616    						dis_keyboard=1;
000384  2001              MOVS     r0,#1
000386  4927              LDR      r1,|L6.1060|
000388  7008              STRB     r0,[r1,#0]
;;;617    						F_name=0;
00038a  2000              MOVS     r0,#0
00038c  4926              LDR      r1,|L6.1064|
00038e  7008              STRB     r0,[r1,#0]
000390  e088              B        |L6.1188|
                  |L6.914|
;;;618    					}
;;;619    					else if(TOUCH_InRect(tpX, tpY, CH1BUTTON_RET_X, CH1BUTTON_RET_Y, CHBUTTON_RET_H, CHBUTTON_RET_W))
000392  201e              MOVS     r0,#0x1e
000394  9000              STR      r0,[sp,#0]
000396  4a28              LDR      r2,|L6.1080|
000398  9001              STR      r0,[sp,#4]
00039a  8812              LDRH     r2,[r2,#0]  ; tpY
00039c  b291              UXTH     r1,r2
00039e  4a27              LDR      r2,|L6.1084|
0003a0  8812              LDRH     r2,[r2,#0]  ; tpX
0003a2  b290              UXTH     r0,r2
0003a4  2378              MOVS     r3,#0x78
0003a6  2232              MOVS     r2,#0x32
0003a8  f7fffffe          BL       TOUCH_InRect
0003ac  b170              CBZ      r0,|L6.972|
;;;620    					{
;;;621    						CH1Btn.Focus =~CH1Btn.Focus;	/* 焦点 */
0003ae  482a              LDR      r0,|L6.1112|
0003b0  7d00              LDRB     r0,[r0,#0x14]  ; CH1Btn
0003b2  43c0              MVNS     r0,r0
0003b4  4928              LDR      r1,|L6.1112|
0003b6  7508              STRB     r0,[r1,#0x14]
;;;622    						strcpy(ch,"1");
0003b8  4819              LDR      r0,|L6.1056|
0003ba  a128              ADR      r1,|L6.1116|
0003bc  8809              LDRH     r1,[r1,#0]
0003be  8001              STRH     r1,[r0,#0]
;;;623    						tBtn.pCaption = ch;
0003c0  4914              LDR      r1,|L6.1044|
0003c2  6108              STR      r0,[r1,#0x10]  ; tBtn
;;;624    						LCD_DrawButton(&CH1Btn);
0003c4  4824              LDR      r0,|L6.1112|
0003c6  f7fffffe          BL       LCD_DrawButton
0003ca  e06b              B        |L6.1188|
                  |L6.972|
;;;625    					}
;;;626    					else if(TOUCH_InRect(tpX, tpY, CH2BUTTON_RET_X, CH2BUTTON_RET_Y, CHBUTTON_RET_H, CHBUTTON_RET_W))
0003cc  201e              MOVS     r0,#0x1e
0003ce  9000              STR      r0,[sp,#0]
0003d0  4a19              LDR      r2,|L6.1080|
0003d2  9001              STR      r0,[sp,#4]
0003d4  8812              LDRH     r2,[r2,#0]  ; tpY
0003d6  b291              UXTH     r1,r2
0003d8  4a18              LDR      r2,|L6.1084|
0003da  8812              LDRH     r2,[r2,#0]  ; tpX
0003dc  b290              UXTH     r0,r2
0003de  23f0              MOVS     r3,#0xf0
0003e0  2232              MOVS     r2,#0x32
0003e2  f7fffffe          BL       TOUCH_InRect
0003e6  b3f8              CBZ      r0,|L6.1128|
;;;627    					{
;;;628    						CH2Btn.Focus =~CH2Btn.Focus;	/* 焦点 */
0003e8  481d              LDR      r0,|L6.1120|
0003ea  7d00              LDRB     r0,[r0,#0x14]  ; CH2Btn
0003ec  43c0              MVNS     r0,r0
0003ee  491c              LDR      r1,|L6.1120|
0003f0  7508              STRB     r0,[r1,#0x14]
;;;629    						strcpy(ch,"2");
0003f2  480b              LDR      r0,|L6.1056|
0003f4  a11b              ADR      r1,|L6.1124|
0003f6  8809              LDRH     r1,[r1,#0]
0003f8  8001              STRH     r1,[r0,#0]
;;;630    						tBtn.pCaption = ch;
0003fa  4906              LDR      r1,|L6.1044|
0003fc  6108              STR      r0,[r1,#0x10]  ; tBtn
;;;631    						LCD_DrawButton(&CH2Btn);
0003fe  e034              B        |L6.1130|
                  |L6.1024|
                          DCD      tFontBtn
                  |L6.1028|
                          DCD      tFontBtnCh1
                  |L6.1032|
                          DCD      fButton
                  |L6.1036|
                          DCD      checkChannel
                  |L6.1040|
                          DCD      m_bMeasureBreak
                  |L6.1044|
                          DCD      tBtn
                  |L6.1048|
000418  b2e2c1bf          DCB      178,226,193,191,0
00041c  00      
00041d  00                DCB      0
00041e  00                DCB      0
00041f  00                DCB      0
                  |L6.1056|
                          DCD      ||ch||
                  |L6.1060|
                          DCD      dis_keyboard
                  |L6.1064|
                          DCD      F_name
                  |L6.1068|
                          DCD      s_Textbuf
                  |L6.1072|
                          DCD      name1
                  |L6.1076|
                          DCD      name2
                  |L6.1080|
                          DCD      tpY
                  |L6.1084|
                          DCD      tpX
                  |L6.1088|
                          DCD      ucTouch
                  |L6.1092|
000444  cda3d6b9          DCB      205,163,214,185,0
000448  00      
000449  00                DCB      0
00044a  00                DCB      0
00044b  00                DCB      0
                  |L6.1100|
                          DCD      tBtn1
                  |L6.1104|
000450  b7b5bbd8          DCB      183,181,187,216,0
000454  00      
000455  00                DCB      0
000456  00                DCB      0
000457  00                DCB      0
                  |L6.1112|
                          DCD      CH1Btn
                  |L6.1116|
00045c  3100              DCB      "1",0
00045e  00                DCB      0
00045f  00                DCB      0
                  |L6.1120|
                          DCD      CH2Btn
                  |L6.1124|
000464  3200              DCB      "2",0
000466  00                DCB      0
000467  00                DCB      0
                  |L6.1128|
000468  e003              B        |L6.1138|
                  |L6.1130|
00046a  4811              LDR      r0,|L6.1200|
00046c  f7fffffe          BL       LCD_DrawButton
000470  e018              B        |L6.1188|
                  |L6.1138|
;;;632    					}
;;;633    					else	/* 按钮失去焦点 */
;;;634    					{
;;;635    						tBtn.Font = &tFontBtn;
000472  4810              LDR      r0,|L6.1204|
000474  4910              LDR      r1,|L6.1208|
000476  60c8              STR      r0,[r1,#0xc]  ; tBtn
;;;636    
;;;637    						tBtn.Left = BUTTON_RET_X;
000478  2032              MOVS     r0,#0x32
00047a  8048              STRH     r0,[r1,#2]
;;;638    						tBtn.Top = BUTTON_RET_Y;
00047c  f44f70b4          MOV      r0,#0x168
000480  8088              STRH     r0,[r1,#4]
;;;639    						tBtn.Height = BUTTON_RET_H;
000482  202d              MOVS     r0,#0x2d
000484  80c8              STRH     r0,[r1,#6]
;;;640    						tBtn.Width = BUTTON_RET_W;
000486  205a              MOVS     r0,#0x5a
000488  8108              STRH     r0,[r1,#8]
;;;641    						tBtn.Focus = 0;	/* 焦点 */
00048a  2000              MOVS     r0,#0
00048c  7508              STRB     r0,[r1,#0x14]
;;;642    						strcpy(ch,"测量");
00048e  f2af0178          ADR      r1,|L6.1048|
000492  480a              LDR      r0,|L6.1212|
000494  f7fffffe          BL       strcpy
;;;643    						tBtn.pCaption = ch;
000498  4808              LDR      r0,|L6.1212|
00049a  4907              LDR      r1,|L6.1208|
00049c  6108              STR      r0,[r1,#0x10]  ; tBtn
;;;644    						LCD_DrawButton(&tBtn);
00049e  4608              MOV      r0,r1
0004a0  f7fffffe          BL       LCD_DrawButton
                  |L6.1188|
0004a4  bf00              NOP                            ;570
                  |L6.1190|
0004a6  2f00              CMP      r7,#0                 ;485
0004a8  f47fadc7          BNE      |L6.58|
;;;645    
;;;646    					}
;;;647    			}
;;;648    		}
;;;649    	}
;;;650    	
;;;651    }
0004ac  e8bd81fc          POP      {r2-r8,pc}
;;;652    void ChannelMeas(u8 Pnum)
                          ENDP

                  |L6.1200|
                          DCD      CH2Btn
                  |L6.1204|
                          DCD      tFontBtn
                  |L6.1208|
                          DCD      tBtn
                  |L6.1212|
                          DCD      ||ch||

                          AREA ||i.Sample||, CODE, READONLY, ALIGN=2

                  Sample PROC
;;;294    }
;;;295    void Sample(u8 Pnum,u16 pulse,double percent,u8 t)
000000  b507              PUSH     {r0-r2,lr}
;;;296    {
000002  ed2d0b02          VPUSH    {d0}
000006  b092              SUB      sp,sp,#0x48
;;;297        u8 	OpenValve=0,CloseValve=0;
000008  2000              MOVS     r0,#0
00000a  9011              STR      r0,[sp,#0x44]
00000c  9010              STR      r0,[sp,#0x40]
;;;298        u8	TempValveOpen	= 91;
00000e  205b              MOVS     r0,#0x5b
000010  900f              STR      r0,[sp,#0x3c]
;;;299        u8	TempValveClose	= 90;
000012  205a              MOVS     r0,#0x5a
000014  900e              STR      r0,[sp,#0x38]
;;;300        u16	i;
;;;301    
;;;302        switch(Pnum)
000016  9814              LDR      r0,[sp,#0x50]
000018  380b              SUBS     r0,r0,#0xb
00001a  2810              CMP      r0,#0x10
00001c  d245              BCS      |L7.170|
00001e  e8dff000          TBB      [pc,r0]
000022  080d              DCB      0x08,0x0d
000024  12171c21          DCB      0x12,0x17,0x1c,0x21
000028  44444444          DCB      0x44,0x44,0x44,0x44
00002c  262b3035          DCB      0x26,0x2b,0x30,0x35
000030  3a3f              DCB      0x3a,0x3f
;;;303        {
;;;304        case 11:
;;;305            OpenValve=11,CloseValve=10;
000032  200b              MOVS     r0,#0xb
000034  9011              STR      r0,[sp,#0x44]
000036  200a              MOVS     r0,#0xa
000038  9010              STR      r0,[sp,#0x40]
;;;306            break;
00003a  e037              B        |L7.172|
;;;307        case 12:
;;;308            OpenValve=31,CloseValve=30;
00003c  201f              MOVS     r0,#0x1f
00003e  9011              STR      r0,[sp,#0x44]
000040  201e              MOVS     r0,#0x1e
000042  9010              STR      r0,[sp,#0x40]
;;;309            break;
000044  e032              B        |L7.172|
;;;310        case 13:
;;;311            OpenValve=51,CloseValve=50;
000046  2033              MOVS     r0,#0x33
000048  9011              STR      r0,[sp,#0x44]
00004a  2032              MOVS     r0,#0x32
00004c  9010              STR      r0,[sp,#0x40]
;;;312            break;
00004e  e02d              B        |L7.172|
;;;313        case 14:
;;;314            OpenValve=71,CloseValve=70;
000050  2047              MOVS     r0,#0x47
000052  9011              STR      r0,[sp,#0x44]
000054  2046              MOVS     r0,#0x46
000056  9010              STR      r0,[sp,#0x40]
;;;315            break;
000058  e028              B        |L7.172|
;;;316        case 15:
;;;317            OpenValve=111,CloseValve=110;
00005a  206f              MOVS     r0,#0x6f
00005c  9011              STR      r0,[sp,#0x44]
00005e  206e              MOVS     r0,#0x6e
000060  9010              STR      r0,[sp,#0x40]
;;;318            break;
000062  e023              B        |L7.172|
;;;319        case 16:
;;;320            OpenValve=131,CloseValve=130;
000064  2083              MOVS     r0,#0x83
000066  9011              STR      r0,[sp,#0x44]
000068  2082              MOVS     r0,#0x82
00006a  9010              STR      r0,[sp,#0x40]
;;;321            break;
00006c  e01e              B        |L7.172|
;;;322        case 21:
;;;323            OpenValve=21,CloseValve=20;
00006e  2015              MOVS     r0,#0x15
000070  9011              STR      r0,[sp,#0x44]
000072  2014              MOVS     r0,#0x14
000074  9010              STR      r0,[sp,#0x40]
;;;324            break;
000076  e019              B        |L7.172|
;;;325        case 22:
;;;326            OpenValve=41,CloseValve=40;
000078  2029              MOVS     r0,#0x29
00007a  9011              STR      r0,[sp,#0x44]
00007c  2028              MOVS     r0,#0x28
00007e  9010              STR      r0,[sp,#0x40]
;;;327            break;
000080  e014              B        |L7.172|
;;;328        case 23:
;;;329            OpenValve=61,CloseValve=60;
000082  203d              MOVS     r0,#0x3d
000084  9011              STR      r0,[sp,#0x44]
000086  203c              MOVS     r0,#0x3c
000088  9010              STR      r0,[sp,#0x40]
;;;330            break;
00008a  e00f              B        |L7.172|
;;;331        case 24:
;;;332            OpenValve=101,CloseValve=100;
00008c  2065              MOVS     r0,#0x65
00008e  9011              STR      r0,[sp,#0x44]
000090  2064              MOVS     r0,#0x64
000092  9010              STR      r0,[sp,#0x40]
;;;333            break;
000094  e00a              B        |L7.172|
;;;334        case 25:
;;;335            OpenValve=121,CloseValve=120;
000096  2079              MOVS     r0,#0x79
000098  9011              STR      r0,[sp,#0x44]
00009a  2078              MOVS     r0,#0x78
00009c  9010              STR      r0,[sp,#0x40]
;;;336            break;
00009e  e005              B        |L7.172|
;;;337        case 26:
;;;338            OpenValve=141,CloseValve=140;
0000a0  208d              MOVS     r0,#0x8d
0000a2  9011              STR      r0,[sp,#0x44]
0000a4  208c              MOVS     r0,#0x8c
0000a6  9010              STR      r0,[sp,#0x40]
;;;339            break;
0000a8  e000              B        |L7.172|
                  |L7.170|
;;;340        default:
;;;341            break;
0000aa  bf00              NOP      
                  |L7.172|
0000ac  bf00              NOP                            ;306
;;;342        }
;;;343        
;;;344    	if(percent>0.95)
0000ae  ed9f0bfe          VLDR     d0,|L7.1192|
0000b2  ec532b10          VMOV     r2,r3,d0
0000b6  ed9d0b12          VLDR     d0,[sp,#0x48]
0000ba  ec510b10          VMOV     r0,r1,d0
0000be  f7fffffe          BL       __aeabi_cdrcmple
0000c2  d201              BCS      |L7.200|
;;;345    		t=0;
0000c4  2000              MOVS     r0,#0
0000c6  9016              STR      r0,[sp,#0x58]
                  |L7.200|
;;;346    	Valve(171);
0000c8  20ab              MOVS     r0,#0xab
0000ca  f7fffffe          BL       Valve
;;;347    	Valve(181);
0000ce  20b5              MOVS     r0,#0xb5
0000d0  f7fffffe          BL       Valve
;;;348    	if(t==0)
0000d4  9816              LDR      r0,[sp,#0x58]
0000d6  2800              CMP      r0,#0
0000d8  d167              BNE      |L7.426|
;;;349    	{	
;;;350    	    Motorun(0,2875,FORWARD,0,  30,60,8,20,  30,6,20,0, OpenValve, 150, 160);   //抽气 4~8r/s	脉冲数:1500
0000da  21a0              MOVS     r1,#0xa0
0000dc  2296              MOVS     r2,#0x96
0000de  2300              MOVS     r3,#0
0000e0  9811              LDR      r0,[sp,#0x44]
0000e2  e9cd3007          STRD     r3,r0,[sp,#0x1c]
0000e6  e9cd2109          STRD     r2,r1,[sp,#0x24]
0000ea  2014              MOVS     r0,#0x14
0000ec  2106              MOVS     r1,#6
0000ee  221e              MOVS     r2,#0x1e
0000f0  e9cd0203          STRD     r0,r2,[sp,#0xc]
0000f4  e9cd1005          STRD     r1,r0,[sp,#0x14]
0000f8  2008              MOVS     r0,#8
0000fa  213c              MOVS     r1,#0x3c
0000fc  e9cd2100          STRD     r2,r1,[sp,#0]
000100  9002              STR      r0,[sp,#8]
000102  461a              MOV      r2,r3
000104  f640313b          MOV      r1,#0xb3b
000108  4618              MOV      r0,r3
00010a  f7fffffe          BL       Motorun
;;;351        	bsp_DelayMS(300);	 //200
00010e  f44f7096          MOV      r0,#0x12c
000112  f7fffffe          BL       bsp_DelayMS
;;;352    		Motorun(0,2875,BACKWARD,0, 30,60,8,20,  30,6,20,200,CloseValve, 151, 160);  //打气，底气清洗 
000116  21a0              MOVS     r1,#0xa0
000118  2297              MOVS     r2,#0x97
00011a  23c8              MOVS     r3,#0xc8
00011c  9810              LDR      r0,[sp,#0x40]
00011e  e9cd3007          STRD     r3,r0,[sp,#0x1c]
000122  e9cd2109          STRD     r2,r1,[sp,#0x24]
000126  2014              MOVS     r0,#0x14
000128  2106              MOVS     r1,#6
00012a  221e              MOVS     r2,#0x1e
00012c  e9cd0203          STRD     r0,r2,[sp,#0xc]
000130  e9cd1005          STRD     r1,r0,[sp,#0x14]
000134  2008              MOVS     r0,#8
000136  213c              MOVS     r1,#0x3c
000138  2300              MOVS     r3,#0
00013a  e9cd2100          STRD     r2,r1,[sp,#0]
00013e  9002              STR      r0,[sp,#8]
000140  2201              MOVS     r2,#1
000142  f640313b          MOV      r1,#0xb3b
000146  4618              MOV      r0,r3
000148  f7fffffe          BL       Motorun
;;;353    		bsp_DelayMS(10);
00014c  200a              MOVS     r0,#0xa
00014e  f7fffffe          BL       bsp_DelayMS
;;;354      		Motorun(0,T,FORWARD,0,  30,60,8,20,  30,6,20,0,  OpenValve, 151, 161);   //抽气，满行程
000152  48d7              LDR      r0,|L7.1200|
000154  ed900b0e          VLDR     d0,[r0,#0x38]
000158  ed8d0b0a          VSTR     d0,[sp,#0x28]
00015c  ed9d0b0a          VLDR     d0,[sp,#0x28]
000160  ec510b10          VMOV     r0,r1,d0
000164  f7fffffe          BL       __aeabi_d2uiz
000168  b280              UXTH     r0,r0
00016a  21a1              MOVS     r1,#0xa1
00016c  2297              MOVS     r2,#0x97
00016e  900c              STR      r0,[sp,#0x30]
000170  2300              MOVS     r3,#0
000172  9811              LDR      r0,[sp,#0x44]
000174  e9cd3007          STRD     r3,r0,[sp,#0x1c]
000178  e9cd2109          STRD     r2,r1,[sp,#0x24]
00017c  2114              MOVS     r1,#0x14
00017e  2206              MOVS     r2,#6
000180  231e              MOVS     r3,#0x1e
000182  e9cd1303          STRD     r1,r3,[sp,#0xc]
000186  2008              MOVS     r0,#8
000188  e9cd2105          STRD     r2,r1,[sp,#0x14]
00018c  213c              MOVS     r1,#0x3c
00018e  e9cd3100          STRD     r3,r1,[sp,#0]
000192  9002              STR      r0,[sp,#8]
000194  2300              MOVS     r3,#0
000196  461a              MOV      r2,r3
000198  4618              MOV      r0,r3
00019a  990c              LDR      r1,[sp,#0x30]
00019c  f7fffffe          BL       Motorun
;;;355    		bsp_DelayMS(300);
0001a0  f44f7096          MOV      r0,#0x12c
0001a4  f7fffffe          BL       bsp_DelayMS
0001a8  e17a              B        |L7.1184|
                  |L7.426|
;;;356    	}
;;;357    	else
;;;358    	{				
;;;359    		i	= (u16)(2875*percent);
0001aa  ed9d0b12          VLDR     d0,[sp,#0x48]
0001ae  ec532b10          VMOV     r2,r3,d0
0001b2  ed9f0bc0          VLDR     d0,|L7.1204|
0001b6  ec510b10          VMOV     r0,r1,d0
0001ba  f7fffffe          BL       __aeabi_dmul
0001be  e9cd010a          STRD     r0,r1,[sp,#0x28]
0001c2  ed9d0b0a          VLDR     d0,[sp,#0x28]
0001c6  ec510b10          VMOV     r0,r1,d0
0001ca  f7fffffe          BL       __aeabi_d2uiz
0001ce  b280              UXTH     r0,r0
0001d0  900d              STR      r0,[sp,#0x34]
;;;360    		Motorun(0,    i,FORWARD,0, 30,60,4,20,  30,4,20,0,  OpenValve, 150, 160);   //抽气 4~8r/s	脉冲数:1500
0001d2  21a0              MOVS     r1,#0xa0
0001d4  2296              MOVS     r2,#0x96
0001d6  2300              MOVS     r3,#0
0001d8  9811              LDR      r0,[sp,#0x44]
0001da  e9cd3007          STRD     r3,r0,[sp,#0x1c]
0001de  e9cd2109          STRD     r2,r1,[sp,#0x24]
0001e2  2014              MOVS     r0,#0x14
0001e4  2104              MOVS     r1,#4
0001e6  221e              MOVS     r2,#0x1e
0001e8  e9cd0203          STRD     r0,r2,[sp,#0xc]
0001ec  e9cd1005          STRD     r1,r0,[sp,#0x14]
0001f0  4608              MOV      r0,r1
0001f2  213c              MOVS     r1,#0x3c
0001f4  e9cd2100          STRD     r2,r1,[sp,#0]
0001f8  9002              STR      r0,[sp,#8]
0001fa  461a              MOV      r2,r3
0001fc  4618              MOV      r0,r3
0001fe  990d              LDR      r1,[sp,#0x34]
000200  f7fffffe          BL       Motorun
;;;361    		bsp_DelayMS(300);
000204  f44f7096          MOV      r0,#0x12c
000208  f7fffffe          BL       bsp_DelayMS
;;;362    		Valve(CloseValve);
00020c  9810              LDR      r0,[sp,#0x40]
00020e  f7fffffe          BL       Valve
;;;363    		Motorun(0,2875-i,FORWARD,0,30,30,0,0, 30,0,0,0, 	 TempValveOpen, 150, 160);   //抽气 4~8r/s	脉冲数:1500
000212  21a0              MOVS     r1,#0xa0
000214  2296              MOVS     r2,#0x96
000216  2300              MOVS     r3,#0
000218  980f              LDR      r0,[sp,#0x3c]
00021a  e9cd3007          STRD     r3,r0,[sp,#0x1c]
00021e  e9cd2109          STRD     r2,r1,[sp,#0x24]
000222  221e              MOVS     r2,#0x1e
000224  e9cd3203          STRD     r3,r2,[sp,#0xc]
000228  9305              STR      r3,[sp,#0x14]
00022a  9200              STR      r2,[sp,#0]
00022c  9306              STR      r3,[sp,#0x18]
00022e  e9cd2301          STRD     r2,r3,[sp,#4]
000232  f640313b          MOV      r1,#0xb3b
000236  980d              LDR      r0,[sp,#0x34]
000238  1a08              SUBS     r0,r1,r0
00023a  b280              UXTH     r0,r0
00023c  461a              MOV      r2,r3
00023e  4601              MOV      r1,r0
000240  900c              STR      r0,[sp,#0x30]
000242  4618              MOV      r0,r3
000244  f7fffffe          BL       Motorun
;;;364    		bsp_DelayMS(300);
000248  f44f7096          MOV      r0,#0x12c
00024c  f7fffffe          BL       bsp_DelayMS
;;;365    		Motorun(0,2875,BACKWARD,0, 30,30,8,20, 30,6,20,200, TempValveClose, 151, 160);  //打气，底气清洗
000250  21a0              MOVS     r1,#0xa0
000252  2297              MOVS     r2,#0x97
000254  23c8              MOVS     r3,#0xc8
000256  980e              LDR      r0,[sp,#0x38]
000258  e9cd3007          STRD     r3,r0,[sp,#0x1c]
00025c  e9cd2109          STRD     r2,r1,[sp,#0x24]
000260  2014              MOVS     r0,#0x14
000262  2106              MOVS     r1,#6
000264  221e              MOVS     r2,#0x1e
000266  e9cd0203          STRD     r0,r2,[sp,#0xc]
00026a  e9cd1005          STRD     r1,r0,[sp,#0x14]
00026e  2008              MOVS     r0,#8
000270  9200              STR      r2,[sp,#0]
000272  2300              MOVS     r3,#0
000274  e9cd2001          STRD     r2,r0,[sp,#4]
000278  2201              MOVS     r2,#1
00027a  f640313b          MOV      r1,#0xb3b
00027e  4618              MOV      r0,r3
000280  f7fffffe          BL       Motorun
;;;366    		bsp_DelayMS(10);
000284  200a              MOVS     r0,#0xa
000286  f7fffffe          BL       bsp_DelayMS
;;;367    
;;;368    		i	= (u16)(T*percent);
00028a  4889              LDR      r0,|L7.1200|
00028c  ed900b0e          VLDR     d0,[r0,#0x38]
000290  ed8d0b08          VSTR     d0,[sp,#0x20]
000294  ed9d0b12          VLDR     d0,[sp,#0x48]
000298  ec532b10          VMOV     r2,r3,d0
00029c  ed9d0b08          VLDR     d0,[sp,#0x20]
0002a0  ec510b10          VMOV     r0,r1,d0
0002a4  f7fffffe          BL       __aeabi_dmul
0002a8  e9cd010a          STRD     r0,r1,[sp,#0x28]
0002ac  ed9d0b0a          VLDR     d0,[sp,#0x28]
0002b0  ec510b10          VMOV     r0,r1,d0
0002b4  f7fffffe          BL       __aeabi_d2uiz
0002b8  b280              UXTH     r0,r0
0002ba  900d              STR      r0,[sp,#0x34]
;;;369      		Motorun(0, i,FORWARD,0,30,60,4,20,  30,4,20,0, OpenValve, 150, 160);   //抽气，
0002bc  21a0              MOVS     r1,#0xa0
0002be  2296              MOVS     r2,#0x96
0002c0  2300              MOVS     r3,#0
0002c2  9811              LDR      r0,[sp,#0x44]
0002c4  e9cd3007          STRD     r3,r0,[sp,#0x1c]
0002c8  e9cd2109          STRD     r2,r1,[sp,#0x24]
0002cc  2014              MOVS     r0,#0x14
0002ce  2104              MOVS     r1,#4
0002d0  221e              MOVS     r2,#0x1e
0002d2  e9cd0203          STRD     r0,r2,[sp,#0xc]
0002d6  e9cd1005          STRD     r1,r0,[sp,#0x14]
0002da  4608              MOV      r0,r1
0002dc  213c              MOVS     r1,#0x3c
0002de  e9cd2100          STRD     r2,r1,[sp,#0]
0002e2  9002              STR      r0,[sp,#8]
0002e4  461a              MOV      r2,r3
0002e6  4618              MOV      r0,r3
0002e8  990d              LDR      r1,[sp,#0x34]
0002ea  f7fffffe          BL       Motorun
;;;370    		bsp_DelayMS(300);
0002ee  f44f7096          MOV      r0,#0x12c
0002f2  f7fffffe          BL       bsp_DelayMS
;;;371    		Valve(CloseValve);
0002f6  9810              LDR      r0,[sp,#0x40]
0002f8  f7fffffe          BL       Valve
;;;372    		Motorun(0,T-i,FORWARD,0,30,30,0,0, 30,0,0,0, 	 TempValveOpen, 150, 160);   //抽气 4~8r/s	脉冲数:1500
0002fc  980d              LDR      r0,[sp,#0x34]
0002fe  f7fffffe          BL       __aeabi_ui2d
000302  e9cd0108          STRD     r0,r1,[sp,#0x20]
000306  486a              LDR      r0,|L7.1200|
000308  ed900b0e          VLDR     d0,[r0,#0x38]
00030c  ed8d0b06          VSTR     d0,[sp,#0x18]
000310  ed9d0b06          VLDR     d0,[sp,#0x18]
000314  ec532b10          VMOV     r2,r3,d0
000318  ed9d0b08          VLDR     d0,[sp,#0x20]
00031c  ec510b10          VMOV     r0,r1,d0
000320  f7fffffe          BL       __aeabi_drsub
000324  e9cd010a          STRD     r0,r1,[sp,#0x28]
000328  ed9d0b0a          VLDR     d0,[sp,#0x28]
00032c  ec510b10          VMOV     r0,r1,d0
000330  f7fffffe          BL       __aeabi_d2uiz
000334  b280              UXTH     r0,r0
000336  22a0              MOVS     r2,#0xa0
000338  2396              MOVS     r3,#0x96
00033a  900c              STR      r0,[sp,#0x30]
00033c  2100              MOVS     r1,#0
00033e  980f              LDR      r0,[sp,#0x3c]
000340  e9cd3209          STRD     r3,r2,[sp,#0x24]
000344  e9cd1007          STRD     r1,r0,[sp,#0x1c]
000348  221e              MOVS     r2,#0x1e
00034a  e9cd1203          STRD     r1,r2,[sp,#0xc]
00034e  9105              STR      r1,[sp,#0x14]
000350  9200              STR      r2,[sp,#0]
000352  9106              STR      r1,[sp,#0x18]
000354  460b              MOV      r3,r1
000356  e9cd2101          STRD     r2,r1,[sp,#4]
00035a  2200              MOVS     r2,#0
00035c  4610              MOV      r0,r2
00035e  990c              LDR      r1,[sp,#0x30]
000360  f7fffffe          BL       Motorun
;;;373    		bsp_DelayMS(300);
000364  f44f7096          MOV      r0,#0x12c
000368  f7fffffe          BL       bsp_DelayMS
;;;374    		Valve(170);
00036c  20aa              MOVS     r0,#0xaa
00036e  f7fffffe          BL       Valve
;;;375    		Motorun(1,T,BACKWARD,0,  20,30,1,20, 20,5,50,200, TempValveClose, 151, 161);  //打气
000372  484f              LDR      r0,|L7.1200|
000374  ed900b0e          VLDR     d0,[r0,#0x38]
000378  ed8d0b0a          VSTR     d0,[sp,#0x28]
00037c  ed9d0b0a          VLDR     d0,[sp,#0x28]
000380  ec510b10          VMOV     r0,r1,d0
000384  f7fffffe          BL       __aeabi_d2uiz
000388  b280              UXTH     r0,r0
00038a  22a1              MOVS     r2,#0xa1
00038c  2197              MOVS     r1,#0x97
00038e  900c              STR      r0,[sp,#0x30]
000390  23c8              MOVS     r3,#0xc8
000392  980e              LDR      r0,[sp,#0x38]
000394  e9cd3007          STRD     r3,r0,[sp,#0x1c]
000398  e9cd1209          STRD     r1,r2,[sp,#0x24]
00039c  2132              MOVS     r1,#0x32
00039e  2205              MOVS     r2,#5
0003a0  2314              MOVS     r3,#0x14
0003a2  9303              STR      r3,[sp,#0xc]
0003a4  e9cd3204          STRD     r3,r2,[sp,#0x10]
0003a8  9106              STR      r1,[sp,#0x18]
0003aa  2101              MOVS     r1,#1
0003ac  221e              MOVS     r2,#0x1e
0003ae  e9cd3200          STRD     r3,r2,[sp,#0]
0003b2  9102              STR      r1,[sp,#8]
0003b4  2300              MOVS     r3,#0
0003b6  460a              MOV      r2,r1
0003b8  2001              MOVS     r0,#1
0003ba  990c              LDR      r1,[sp,#0x30]
0003bc  f7fffffe          BL       Motorun
;;;376    		Motorun(0,T,FORWARD,0, 	 30,60,8,20, 30,6,20,0, 	 0, 0, 0);   //抽气 		
0003c0  483b              LDR      r0,|L7.1200|
0003c2  ed900b0e          VLDR     d0,[r0,#0x38]
0003c6  ed8d0b0a          VSTR     d0,[sp,#0x28]
0003ca  ed9d0b0a          VLDR     d0,[sp,#0x28]
0003ce  ec510b10          VMOV     r0,r1,d0
0003d2  f7fffffe          BL       __aeabi_d2uiz
0003d6  b280              UXTH     r0,r0
0003d8  900c              STR      r0,[sp,#0x30]
0003da  2000              MOVS     r0,#0
0003dc  9007              STR      r0,[sp,#0x1c]
0003de  9008              STR      r0,[sp,#0x20]
0003e0  9009              STR      r0,[sp,#0x24]
0003e2  900a              STR      r0,[sp,#0x28]
0003e4  2014              MOVS     r0,#0x14
0003e6  2106              MOVS     r1,#6
0003e8  221e              MOVS     r2,#0x1e
0003ea  e9cd0203          STRD     r0,r2,[sp,#0xc]
0003ee  e9cd1005          STRD     r1,r0,[sp,#0x14]
0003f2  2008              MOVS     r0,#8
0003f4  213c              MOVS     r1,#0x3c
0003f6  2300              MOVS     r3,#0
0003f8  e9cd2100          STRD     r2,r1,[sp,#0]
0003fc  9002              STR      r0,[sp,#8]
0003fe  461a              MOV      r2,r3
000400  4618              MOV      r0,r3
000402  990c              LDR      r1,[sp,#0x30]
000404  f7fffffe          BL       Motorun
;;;377    		Motorun(1,T,BACKWARD,0,  20,30,1,20, 20,5,50,200, 0, 0, 0);  //打气
000408  4829              LDR      r0,|L7.1200|
00040a  ed900b0e          VLDR     d0,[r0,#0x38]
00040e  ed8d0b0a          VSTR     d0,[sp,#0x28]
000412  ed9d0b0a          VLDR     d0,[sp,#0x28]
000416  ec510b10          VMOV     r0,r1,d0
00041a  f7fffffe          BL       __aeabi_d2uiz
00041e  b280              UXTH     r0,r0
000420  900c              STR      r0,[sp,#0x30]
000422  2000              MOVS     r0,#0
000424  23c8              MOVS     r3,#0xc8
000426  e9cd3007          STRD     r3,r0,[sp,#0x1c]
00042a  9009              STR      r0,[sp,#0x24]
00042c  900a              STR      r0,[sp,#0x28]
00042e  2032              MOVS     r0,#0x32
000430  2105              MOVS     r1,#5
000432  2214              MOVS     r2,#0x14
000434  9203              STR      r2,[sp,#0xc]
000436  e9cd2104          STRD     r2,r1,[sp,#0x10]
00043a  9006              STR      r0,[sp,#0x18]
00043c  2001              MOVS     r0,#1
00043e  211e              MOVS     r1,#0x1e
000440  2300              MOVS     r3,#0
000442  e9cd2100          STRD     r2,r1,[sp,#0]
000446  9002              STR      r0,[sp,#8]
000448  4602              MOV      r2,r0
00044a  990c              LDR      r1,[sp,#0x30]
00044c  f7fffffe          BL       Motorun
;;;378    		bsp_DelayMS(400);
000450  f44f70c8          MOV      r0,#0x190
000454  f7fffffe          BL       bsp_DelayMS
;;;379    		Motorun(0,T,FORWARD,0, 	 30,60,8,20, 30,6,20,0, 	 0, 0, 0);   //抽气 
000458  4815              LDR      r0,|L7.1200|
00045a  ed900b0e          VLDR     d0,[r0,#0x38]
00045e  ed8d0b0a          VSTR     d0,[sp,#0x28]
000462  ed9d0b0a          VLDR     d0,[sp,#0x28]
000466  ec510b10          VMOV     r0,r1,d0
00046a  f7fffffe          BL       __aeabi_d2uiz
00046e  b280              UXTH     r0,r0
000470  900c              STR      r0,[sp,#0x30]
000472  2000              MOVS     r0,#0
000474  9007              STR      r0,[sp,#0x1c]
000476  9008              STR      r0,[sp,#0x20]
000478  9009              STR      r0,[sp,#0x24]
00047a  2114              MOVS     r1,#0x14
00047c  900a              STR      r0,[sp,#0x28]
00047e  2006              MOVS     r0,#6
000480  221e              MOVS     r2,#0x1e
000482  e9cd1203          STRD     r1,r2,[sp,#0xc]
000486  e9cd0105          STRD     r0,r1,[sp,#0x14]
00048a  2008              MOVS     r0,#8
00048c  213c              MOVS     r1,#0x3c
00048e  2300              MOVS     r3,#0
000490  e9cd2100          STRD     r2,r1,[sp,#0]
000494  9002              STR      r0,[sp,#8]
000496  461a              MOV      r2,r3
000498  4618              MOV      r0,r3
00049a  990c              LDR      r1,[sp,#0x30]
00049c  f7fffffe          BL       Motorun
                  |L7.1184|
;;;380    	}
;;;381    	Valve(CloseValve);
0004a0  9810              LDR      r0,[sp,#0x40]
0004a2  f7fffffe          BL       Valve
;;;382    	Valve(170);
0004a6  e009              B        |L7.1212|
                  |L7.1192|
0004a8  66666666          DCFD     0x3fee666666666666 ; 0.94999999999999996
0004ac  3fee6666
                  |L7.1200|
                          DCD      m_lCf
                  |L7.1204|
0004b4  00000000          DCFD     0x40a6760000000000 ; 2875
0004b8  40a67600
                  |L7.1212|
0004bc  20aa              MOVS     r0,#0xaa
0004be  f7fffffe          BL       Valve
;;;383    	Motorun(0, pulse,  BACKWARD,0,     30,30,0,0,  30,0,0,0,	 CloseValve, 151, 160);  //反推m个脉冲  ,速度4~5r/s
0004c2  21a0              MOVS     r1,#0xa0
0004c4  2297              MOVS     r2,#0x97
0004c6  2300              MOVS     r3,#0
0004c8  9810              LDR      r0,[sp,#0x40]
0004ca  e9cd3007          STRD     r3,r0,[sp,#0x1c]
0004ce  e9cd2109          STRD     r2,r1,[sp,#0x24]
0004d2  221e              MOVS     r2,#0x1e
0004d4  e9cd3203          STRD     r3,r2,[sp,#0xc]
0004d8  9305              STR      r3,[sp,#0x14]
0004da  9200              STR      r2,[sp,#0]
0004dc  9306              STR      r3,[sp,#0x18]
0004de  e9cd2301          STRD     r2,r3,[sp,#4]
0004e2  2201              MOVS     r2,#1
0004e4  4618              MOV      r0,r3
0004e6  9915              LDR      r1,[sp,#0x54]
0004e8  f7fffffe          BL       Motorun
;;;384    	bsp_DelayMS(300);	   //200
0004ec  f44f7096          MOV      r0,#0x12c
0004f0  f7fffffe          BL       bsp_DelayMS
;;;385    	Motorun(1,T-pulse,BACKWARD,0,   20,30,1,20,  20,5,50,200,0, 0, 161);  //打气至底
0004f4  9815              LDR      r0,[sp,#0x54]
0004f6  f7fffffe          BL       __aeabi_ui2d
0004fa  e9cd0108          STRD     r0,r1,[sp,#0x20]
0004fe  4824              LDR      r0,|L7.1424|
000500  ed900b0e          VLDR     d0,[r0,#0x38]
000504  ed8d0b06          VSTR     d0,[sp,#0x18]
000508  ed9d0b06          VLDR     d0,[sp,#0x18]
00050c  ec532b10          VMOV     r2,r3,d0
000510  ed9d0b08          VLDR     d0,[sp,#0x20]
000514  ec510b10          VMOV     r0,r1,d0
000518  f7fffffe          BL       __aeabi_drsub
00051c  e9cd010a          STRD     r0,r1,[sp,#0x28]
000520  ed9d0b0a          VLDR     d0,[sp,#0x28]
000524  ec510b10          VMOV     r0,r1,d0
000528  f7fffffe          BL       __aeabi_d2uiz
00052c  b280              UXTH     r0,r0
00052e  900c              STR      r0,[sp,#0x30]
000530  20a1              MOVS     r0,#0xa1
000532  2100              MOVS     r1,#0
000534  23c8              MOVS     r3,#0xc8
000536  e9cd3107          STRD     r3,r1,[sp,#0x1c]
00053a  e9cd1009          STRD     r1,r0,[sp,#0x24]
00053e  2032              MOVS     r0,#0x32
000540  2105              MOVS     r1,#5
000542  2214              MOVS     r2,#0x14
000544  9203              STR      r2,[sp,#0xc]
000546  e9cd2104          STRD     r2,r1,[sp,#0x10]
00054a  9006              STR      r0,[sp,#0x18]
00054c  2001              MOVS     r0,#1
00054e  211e              MOVS     r1,#0x1e
000550  2300              MOVS     r3,#0
000552  e9cd2100          STRD     r2,r1,[sp,#0]
000556  9002              STR      r0,[sp,#8]
000558  4602              MOV      r2,r0
00055a  990c              LDR      r1,[sp,#0x30]
00055c  f7fffffe          BL       Motorun
;;;386    
;;;387    	bsp_DelayMS(480);
000560  f44f70f0          MOV      r0,#0x1e0
000564  f7fffffe          BL       bsp_DelayMS
;;;388    	Valve(150);
000568  2096              MOVS     r0,#0x96
00056a  f7fffffe          BL       Valve
;;;389    //	if(Pnum/10==2)
;;;390    //		bsp_DelayMS(5700);         //共延时5s等气压稳定
;;;391    //	else
;;;392    	bsp_DelayMS(5000);
00056e  f2413088          MOV      r0,#0x1388
000572  f7fffffe          BL       bsp_DelayMS
;;;393        //转换发送数据
;;;394    //	for(t1=0;t1<10;t1++)
;;;395    //	{
;;;396    		AK_Conv();
000576  f7fffffe          BL       AK_Conv
;;;397    //		Int1[t1+t2*10]=Intensity1;
;;;398    //		Int2[t1+t2*10]=Intensity2;
;;;399    //	}
;;;400    //	t2+=1;
;;;401    	Valve(151);
00057a  2097              MOVS     r0,#0x97
00057c  f7fffffe          BL       Valve
;;;402    	Valve(160);//排气  
000580  20a0              MOVS     r0,#0xa0
000582  f7fffffe          BL       Valve
;;;403    	bsp_DelayMS(200);
000586  20c8              MOVS     r0,#0xc8
000588  f7fffffe          BL       bsp_DelayMS
;;;404    }
00058c  b017              ADD      sp,sp,#0x5c
00058e  bd00              POP      {pc}
;;;405    void Dis_Measurement(void)
                          ENDP

                  |L7.1424|
                          DCD      m_lCf

                          AREA ||i.SampleFirst||, CODE, READONLY, ALIGN=2

                  SampleFirst PROC
;;;166    -----------------------------------*/
;;;167    void	SampleFirst(u8 Pnum,u16 m)
000000  e92d41f0          PUSH     {r4-r8,lr}
;;;168    {
000004  ed2d8b04          VPUSH    {d8-d9}
000008  b08c              SUB      sp,sp,#0x30
00000a  4604              MOV      r4,r0
00000c  460d              MOV      r5,r1
;;;169        u8 OpenValve=0,CloseValve=0;
00000e  2600              MOVS     r6,#0
000010  2700              MOVS     r7,#0
;;;170        switch(Pnum)
000012  2c07              CMP      r4,#7
000014  d217              BCS      |L8.70|
000016  e8dff004          TBB      [pc,r4]
00001a  1604              DCB      0x16,0x04
00001c  070a0d10          DCB      0x07,0x0a,0x0d,0x10
000020  1300              DCB      0x13,0x00
;;;171        {
;;;172        case 1:
;;;173            OpenValve=21,CloseValve=20;
000022  2615              MOVS     r6,#0x15
000024  2714              MOVS     r7,#0x14
;;;174            break;
000026  e00f              B        |L8.72|
;;;175        case 2:
;;;176            OpenValve=41,CloseValve=40;
000028  2629              MOVS     r6,#0x29
00002a  2728              MOVS     r7,#0x28
;;;177            break;
00002c  e00c              B        |L8.72|
;;;178        case 3:
;;;179            OpenValve=61,CloseValve=60;
00002e  263d              MOVS     r6,#0x3d
000030  273c              MOVS     r7,#0x3c
;;;180            break;
000032  e009              B        |L8.72|
;;;181        case 4:
;;;182            OpenValve=101,CloseValve=100;
000034  2665              MOVS     r6,#0x65
000036  2764              MOVS     r7,#0x64
;;;183            break;
000038  e006              B        |L8.72|
;;;184        case 5:
;;;185            OpenValve=121,CloseValve=120;
00003a  2679              MOVS     r6,#0x79
00003c  2778              MOVS     r7,#0x78
;;;186            break;
00003e  e003              B        |L8.72|
;;;187        case 6:
;;;188            OpenValve=141,CloseValve=140;
000040  268d              MOVS     r6,#0x8d
000042  278c              MOVS     r7,#0x8c
;;;189            break;
000044  e000              B        |L8.72|
                  |L8.70|
;;;190        default:
;;;191            break;
000046  bf00              NOP      
                  |L8.72|
000048  bf00              NOP                            ;174
;;;192        }
;;;193    
;;;194    Valve(171);	
00004a  20ab              MOVS     r0,#0xab
00004c  f7fffffe          BL       Valve
;;;195    	Valve(181);		  //1570-->1800
000050  20b5              MOVS     r0,#0xb5
000052  f7fffffe          BL       Valve
;;;196    	Motorun(0,1800,FORWARD,0,      30,60,8,20,      30,6,20,0, 	 OpenValve, 150, 160);   //抽气 4~8r/s	脉冲数:1500
000056  20a0              MOVS     r0,#0xa0
000058  2196              MOVS     r1,#0x96
00005a  2200              MOVS     r2,#0
00005c  e9cd2607          STRD     r2,r6,[sp,#0x1c]
000060  e9cd1009          STRD     r1,r0,[sp,#0x24]
000064  2014              MOVS     r0,#0x14
000066  2106              MOVS     r1,#6
000068  221e              MOVS     r2,#0x1e
00006a  e9cd0203          STRD     r0,r2,[sp,#0xc]
00006e  e9cd1005          STRD     r1,r0,[sp,#0x14]
000072  2008              MOVS     r0,#8
000074  213c              MOVS     r1,#0x3c
000076  2300              MOVS     r3,#0
000078  e9cd2100          STRD     r2,r1,[sp,#0]
00007c  9002              STR      r0,[sp,#8]
00007e  461a              MOV      r2,r3
000080  f44f61e1          MOV      r1,#0x708
000084  4618              MOV      r0,r3
000086  f7fffffe          BL       Motorun
;;;197    	Valve(CloseValve); Valve(170);	
00008a  4638              MOV      r0,r7
00008c  f7fffffe          BL       Valve
000090  20aa              MOVS     r0,#0xaa
000092  f7fffffe          BL       Valve
;;;198    	bsp_DelayMS(22);
000096  2016              MOVS     r0,#0x16
000098  f7fffffe          BL       bsp_DelayMS
;;;199    	Valve(151);
00009c  2097              MOVS     r0,#0x97
00009e  f7fffffe          BL       Valve
;;;200    	bsp_DelayMS(2);
0000a2  2002              MOVS     r0,#2
0000a4  f7fffffe          BL       bsp_DelayMS
;;;201    	Motorun(0,1800,BACKWARD,0,     30,60,8,20,      30,6,20,200,	 0, 0, 0);  //打气，底气清洗
0000a8  2000              MOVS     r0,#0
0000aa  23c8              MOVS     r3,#0xc8
0000ac  e9cd3007          STRD     r3,r0,[sp,#0x1c]
0000b0  9009              STR      r0,[sp,#0x24]
0000b2  900a              STR      r0,[sp,#0x28]
0000b4  2014              MOVS     r0,#0x14
0000b6  2106              MOVS     r1,#6
0000b8  221e              MOVS     r2,#0x1e
0000ba  e9cd0203          STRD     r0,r2,[sp,#0xc]
0000be  e9cd1005          STRD     r1,r0,[sp,#0x14]
0000c2  2008              MOVS     r0,#8
0000c4  213c              MOVS     r1,#0x3c
0000c6  2300              MOVS     r3,#0
0000c8  e9cd2100          STRD     r2,r1,[sp,#0]
0000cc  9002              STR      r0,[sp,#8]
0000ce  2201              MOVS     r2,#1
0000d0  f44f61e1          MOV      r1,#0x708
0000d4  4618              MOV      r0,r3
0000d6  f7fffffe          BL       Motorun
;;;202    	Valve(171);
0000da  20ab              MOVS     r0,#0xab
0000dc  f7fffffe          BL       Valve
;;;203    	Valve(OpenValve);
0000e0  4630              MOV      r0,r6
0000e2  f7fffffe          BL       Valve
;;;204    	bsp_DelayMS(2);
0000e6  2002              MOVS     r0,#2
0000e8  f7fffffe          BL       bsp_DelayMS
;;;205    	Valve(150);
0000ec  2096              MOVS     r0,#0x96
0000ee  f7fffffe          BL       Valve
;;;206    	bsp_DelayMS(27);	
0000f2  201b              MOVS     r0,#0x1b
0000f4  f7fffffe          BL       bsp_DelayMS
;;;207    	
;;;208      	Motorun(0,T,FORWARD,0,      30,60,8,20,      30,6,20,0, 	 0, 0, 0);   //抽气，满行程
0000f8  484e              LDR      r0,|L8.564|
0000fa  ed901b0e          VLDR     d1,[r0,#0x38]
0000fe  eeb00a41          VMOV.F32 s0,s2
000102  eef00a61          VMOV.F32 s1,s3
000106  ec510b10          VMOV     r0,r1,d0
00010a  f7fffffe          BL       __aeabi_d2uiz
00010e  fa1ff880          UXTH     r8,r0
000112  2000              MOVS     r0,#0
000114  9007              STR      r0,[sp,#0x1c]
000116  9008              STR      r0,[sp,#0x20]
000118  9009              STR      r0,[sp,#0x24]
00011a  900a              STR      r0,[sp,#0x28]
00011c  2014              MOVS     r0,#0x14
00011e  2106              MOVS     r1,#6
000120  221e              MOVS     r2,#0x1e
000122  e9cd0203          STRD     r0,r2,[sp,#0xc]
000126  e9cd1005          STRD     r1,r0,[sp,#0x14]
00012a  2008              MOVS     r0,#8
00012c  213c              MOVS     r1,#0x3c
00012e  2300              MOVS     r3,#0
000130  e9cd2100          STRD     r2,r1,[sp,#0]
000134  9002              STR      r0,[sp,#8]
000136  461a              MOV      r2,r3
000138  4641              MOV      r1,r8
00013a  4618              MOV      r0,r3
00013c  f7fffffe          BL       Motorun
;;;209    	
;;;210    	bsp_DelayMS(1532);
000140  f24050fc          MOV      r0,#0x5fc
000144  f7fffffe          BL       bsp_DelayMS
;;;211    	
;;;212    	Valve(CloseValve);
000148  4638              MOV      r0,r7
00014a  f7fffffe          BL       Valve
;;;213    	bsp_DelayMS(25);
00014e  2019              MOVS     r0,#0x19
000150  f7fffffe          BL       bsp_DelayMS
;;;214    	Valve(170);
000154  20aa              MOVS     r0,#0xaa
000156  f7fffffe          BL       Valve
;;;215    	Valve(151);
00015a  2097              MOVS     r0,#0x97
00015c  f7fffffe          BL       Valve
;;;216    	bsp_DelayMS(2);	
000160  2002              MOVS     r0,#2
000162  f7fffffe          BL       bsp_DelayMS
;;;217    	Motorun(0, m,  BACKWARD,0,     30,30,0,0,      30,0,0,0,	 	 0, 0, 0);  //反推m个脉冲  ,速度4~5r/s
000166  2000              MOVS     r0,#0
000168  9007              STR      r0,[sp,#0x1c]
00016a  9008              STR      r0,[sp,#0x20]
00016c  9009              STR      r0,[sp,#0x24]
00016e  221e              MOVS     r2,#0x1e
000170  900a              STR      r0,[sp,#0x28]
000172  e9cd0203          STRD     r0,r2,[sp,#0xc]
000176  9005              STR      r0,[sp,#0x14]
000178  9200              STR      r2,[sp,#0]
00017a  9006              STR      r0,[sp,#0x18]
00017c  2300              MOVS     r3,#0
00017e  e9cd2001          STRD     r2,r0,[sp,#4]
000182  2201              MOVS     r2,#1
000184  4629              MOV      r1,r5
000186  4618              MOV      r0,r3
000188  f7fffffe          BL       Motorun
;;;218    	bsp_DelayMS(1024);
00018c  f44f6080          MOV      r0,#0x400
000190  f7fffffe          BL       bsp_DelayMS
;;;219    	Valve(161);
000194  20a1              MOVS     r0,#0xa1
000196  f7fffffe          BL       Valve
;;;220    	bsp_DelayMS(54);
00019a  2036              MOVS     r0,#0x36
00019c  f7fffffe          BL       bsp_DelayMS
;;;221    	Motorun(1,T-m,BACKWARD,0,   20,30,1,20, 20,5,50,200	, 0, 0, 0);  //打气至底
0001a0  4628              MOV      r0,r5
0001a2  f7fffffe          BL       __aeabi_ui2d
0001a6  ec410b19          VMOV     d9,r0,r1
0001aa  4822              LDR      r0,|L8.564|
0001ac  ed901b0e          VLDR     d1,[r0,#0x38]
0001b0  eeb00a41          VMOV.F32 s0,s2
0001b4  eef00a61          VMOV.F32 s1,s3
0001b8  ec532b10          VMOV     r2,r3,d0
0001bc  ec510b19          VMOV     r0,r1,d9
0001c0  f7fffffe          BL       __aeabi_drsub
0001c4  ec410b18          VMOV     d8,r0,r1
0001c8  f7fffffe          BL       __aeabi_d2uiz
0001cc  fa1ff880          UXTH     r8,r0
0001d0  2000              MOVS     r0,#0
0001d2  23c8              MOVS     r3,#0xc8
0001d4  e9cd3007          STRD     r3,r0,[sp,#0x1c]
0001d8  9009              STR      r0,[sp,#0x24]
0001da  900a              STR      r0,[sp,#0x28]
0001dc  2032              MOVS     r0,#0x32
0001de  2105              MOVS     r1,#5
0001e0  2214              MOVS     r2,#0x14
0001e2  9203              STR      r2,[sp,#0xc]
0001e4  e9cd2104          STRD     r2,r1,[sp,#0x10]
0001e8  9006              STR      r0,[sp,#0x18]
0001ea  2001              MOVS     r0,#1
0001ec  211e              MOVS     r1,#0x1e
0001ee  2300              MOVS     r3,#0
0001f0  e9cd2100          STRD     r2,r1,[sp,#0]
0001f4  9002              STR      r0,[sp,#8]
0001f6  4602              MOV      r2,r0
0001f8  4641              MOV      r1,r8
0001fa  f7fffffe          BL       Motorun
;;;222    	bsp_DelayMS(480);
0001fe  f44f70f0          MOV      r0,#0x1e0
000202  f7fffffe          BL       bsp_DelayMS
;;;223    	Valve(150);
000206  2096              MOVS     r0,#0x96
000208  f7fffffe          BL       Valve
;;;224    	bsp_DelayMS(664);         
00020c  f44f7026          MOV      r0,#0x298
000210  f7fffffe          BL       bsp_DelayMS
;;;225        //转换发送数据
;;;226    	AK_Conv(); Valve(151);
000214  f7fffffe          BL       AK_Conv
000218  2097              MOVS     r0,#0x97
00021a  f7fffffe          BL       Valve
;;;227    	Valve(160);//排气  
00021e  20a0              MOVS     r0,#0xa0
000220  f7fffffe          BL       Valve
;;;228    	bsp_DelayMS(183);	
000224  20b7              MOVS     r0,#0xb7
000226  f7fffffe          BL       bsp_DelayMS
;;;229    }
00022a  b00c              ADD      sp,sp,#0x30
00022c  ecbd8b04          VPOP     {d8-d9}
000230  e8bd81f0          POP      {r4-r8,pc}
;;;230    void	BaseFirst(u8 Pnum,u16 m)
                          ENDP

                  |L8.564|
                          DCD      m_lCf

                          AREA ||i.bsp_KeyScan||, CODE, READONLY, ALIGN=2

                  bsp_KeyScan PROC
;;;73     void ChannelMeas(u8 Pnum);
;;;74     void bsp_KeyScan(void)
000000  b51c              PUSH     {r2-r4,lr}
;;;75     {
;;;76     	if(fButton==0)
000002  4819              LDR      r0,|L9.104|
000004  7800              LDRB     r0,[r0,#0]  ; fButton
000006  b900              CBNZ     r0,|L9.10|
                  |L9.8|
;;;77     		return;
;;;78     	GT811_Scan();
;;;79     	ucTouch = TOUCH_GetKey(&tpX, &tpY);	/* 读取触摸事件 */
;;;80     	if (ucTouch != TOUCH_NONE)
;;;81     	{
;;;82     		switch(ucTouch)
;;;83     		{
;;;84     				case TOUCH_DOWN:		/* 触笔按下事件 */
;;;85     //					if (TOUCH_InRect(tpX, tpY, BUTTON_RET_X, BUTTON_RET_Y, BUTTON_RET_H, BUTTON_RET_W))
;;;86     //					{						
;;;87     //						tBtn.Font = &tFontBtn;
;;;88     //						tBtn.Left = BUTTON_RET_X;
;;;89     //						tBtn.Top = BUTTON_RET_Y;
;;;90     //						tBtn.Height = BUTTON_RET_H;
;;;91     //						tBtn.Width = BUTTON_RET_W;
;;;92     //						tBtn.Focus = 1;	/* 焦点 */
;;;93     //						strcpy(ch,"停止");		
;;;94     //						tBtn.pCaption = ch;
;;;95     //						LCD_DrawButton(&tBtn);							
;;;96     //					}
;;;97     					break;
;;;98     			case TOUCH_RELEASE:	
;;;99     					if (TOUCH_InRect(tpX, tpY, BUTTON_RET_X, BUTTON_RET_Y, BUTTON_RET_H, BUTTON_RET_W))
;;;100    					{
;;;101    						fButton=0;
;;;102    						m_bMeasureBreak=1;
;;;103    //						tBtn.Font = &tFontBtn;
;;;104    //						tBtn.Left = BUTTON_RET_X;
;;;105    //						tBtn.Top = BUTTON_RET_Y;
;;;106    //						tBtn.Height = BUTTON_RET_H;
;;;107    //						tBtn.Width = BUTTON_RET_W;
;;;108    //						tBtn.Focus = 0;	/* 焦点 */
;;;109    //						strcpy(ch,"测量");							
;;;110    //						tBtn.pCaption = ch;
;;;111    //						LCD_DrawButton(&tBtn);
;;;112    					}
;;;113    				break;
;;;114    			default:break;
;;;115    		}
;;;116    	}
;;;117    }
000008  bd1c              POP      {r2-r4,pc}
                  |L9.10|
00000a  f7fffffe          BL       GT811_Scan
00000e  4917              LDR      r1,|L9.108|
000010  4817              LDR      r0,|L9.112|
000012  f7fffffe          BL       TOUCH_GetKey
000016  4917              LDR      r1,|L9.116|
000018  7008              STRB     r0,[r1,#0]            ;79
00001a  4608              MOV      r0,r1                 ;80
00001c  7800              LDRB     r0,[r0,#0]            ;80  ; ucTouch
00001e  b300              CBZ      r0,|L9.98|
000020  4608              MOV      r0,r1                 ;82
000022  7800              LDRB     r0,[r0,#0]            ;82  ; ucTouch
000024  2801              CMP      r0,#1                 ;82
000026  d002              BEQ      |L9.46|
000028  2803              CMP      r0,#3                 ;82
00002a  d118              BNE      |L9.94|
00002c  e000              B        |L9.48|
                  |L9.46|
00002e  e017              B        |L9.96|
                  |L9.48|
000030  205a              MOVS     r0,#0x5a              ;99
000032  212d              MOVS     r1,#0x2d              ;99
000034  4a0d              LDR      r2,|L9.108|
000036  e9cd1000          STRD     r1,r0,[sp,#0]         ;99
00003a  8812              LDRH     r2,[r2,#0]            ;99  ; tpY
00003c  b291              UXTH     r1,r2                 ;99
00003e  4a0c              LDR      r2,|L9.112|
000040  8812              LDRH     r2,[r2,#0]            ;99  ; tpX
000042  b290              UXTH     r0,r2                 ;99
000044  f44f73b4          MOV      r3,#0x168             ;99
000048  2232              MOVS     r2,#0x32              ;99
00004a  f7fffffe          BL       TOUCH_InRect
00004e  b128              CBZ      r0,|L9.92|
000050  2000              MOVS     r0,#0                 ;101
000052  4905              LDR      r1,|L9.104|
000054  7008              STRB     r0,[r1,#0]            ;101
000056  2001              MOVS     r0,#1                 ;102
000058  4907              LDR      r1,|L9.120|
00005a  7008              STRB     r0,[r1,#0]            ;102
                  |L9.92|
00005c  e000              B        |L9.96|
                  |L9.94|
00005e  bf00              NOP                            ;114
                  |L9.96|
000060  bf00              NOP                            ;97
                  |L9.98|
000062  bf00              NOP      
000064  e7d0              B        |L9.8|
;;;118    void  Air(void)
                          ENDP

000066  0000              DCW      0x0000
                  |L9.104|
                          DCD      fButton
                  |L9.108|
                          DCD      tpY
                  |L9.112|
                          DCD      tpX
                  |L9.116|
                          DCD      ucTouch
                  |L9.120|
                          DCD      m_bMeasureBreak

                          AREA ||.bss||, DATA, NOINIT, ALIGN=3

                  Intensitys
                          %        72
                  ||c12||
                          %        240
                  ||c13||
                          %        240
                  delta1
                          %        240
                  Ints5
                          %        240
                  Ints6
                          %        240
                  tBtn
                          %        36
                  tBtn1
                          %        36
                  CH1Btn
                          %        36
                  CH2Btn
                          %        36
                  ||ch||
                          %        10

                          AREA ||.data||, DATA, ALIGN=3

                  m
                          DCD      0x00000000
                  m_bIgnoreConcentrationLow
000004  00000000          DCB      0x00,0x00,0x00,0x00
                  m_lCfC12
000008  4a8c154d          DCFD     0x3fa404ea4a8c154d ; 0.039100000000000003
00000c  3fa404ea
000010  8e219653          DCFD     0x401171758e219653 ; 4.3608000000000002
000014  40117175
000018  467381d8          DCFD     0x40201694467381d8 ; 8.0441000000000003
00001c  40201694
000020  020c49ba          DCFD     0xc026672b020c49ba ; -11.201499999999999
000024  c026672b
000028  4a2339c1          DCFD     0x402b837b4a2339c1 ; 13.7568
00002c  402b837b
                          %        8
                  m_lCfC13
000038  1ff2e48f          DCFD     0x3ff06fd21ff2e48f ; 1.0273000000000001
00003c  3ff06fd2
000040  e5604189          DCFD     0x40941c90e5604189 ; 1287.1415
000044  40941c90
000048  3886594b          DCFD     0x409ed2963886594b ; 1972.6467
00004c  409ed296
000050  c5d63886          DCFD     0xc0a2b98dc5d63886 ; -2396.7768999999998
000054  c0a2b98d
000058  02752546          DCFD     0x40ac8afa02752546 ; 3653.4883
00005c  40ac8afa
                          %        8
                  C12BABS
000068  00000000          DCFD     0x0000000000000000 ; 0
00006c  00000000
                  C12SABS
000070  00000000          DCFD     0x0000000000000000 ; 0
000074  00000000
                  m_lC12B
000078  00000000          DCFD     0x0000000000000000 ; 0
00007c  00000000
                  m_lC12S
000080  00000000          DCFD     0x0000000000000000 ; 0
000084  00000000
                  Percent
000088  33333333          DCFD     0x3fe3333333333333 ; 0.59999999999999998
00008c  3fe33333
                  Per
000090  33333333          DCFD     0x3fe3333333333333 ; 0.59999999999999998
000094  3fe33333
                  xbc12
                          %        8
                  xbc13
                          %        8
                  xsc12
                          %        8
                  xsc13
                          %        8
                  ||cz1||
                          %        8
                  ||cz2||
                          %        8
                  cbc12
                          %        8
                  cbc13
                          %        8
                  csc12
                          %        8
                  csc13
                          %        8
                  ratebase
                          %        8
                  ratesample
                          %        8
                  ||dob||
0000f8  0000              DCW      0x0000
                  dob1
0000fa  0000              DCB      0x00,0x00
                  m_bChanged
0000fc  00                DCB      0x00
                  checkChannel
0000fd  00                DCB      0x00
                  m_mesureType
0000fe  00                DCB      0x00
                  m_bDilution
0000ff  00                DCB      0x00
                  F_name
000100  00                DCB      0x00
                  ucTouch
000101  00                DCB      0x00
                  tpX
000102  0000              DCB      0x00,0x00
                  tpY
000104  0000              DCB      0x00,0x00
                  fButton
000106  0000              DCB      0x00,0x00
                  tFontBtn
                          %        8
                  tFontBtnCh1
                          %        8
                  name1
                          %        8
                  name2
                          %        8

;*** Start embedded assembler ***

#line 1 "..\\User\\measurement.c"
	AREA ||.rev16_text||, CODE
	THUMB
	EXPORT |__asm___13_measurement_c_m____REV16|
#line 129 "C:\\Keil_v5\\ARM\\CMSIS\\Include\\core_cmInstr.h"
|__asm___13_measurement_c_m____REV16| PROC
#line 130

 rev16 r0, r0
 bx lr
	ENDP
	AREA ||.revsh_text||, CODE
	THUMB
	EXPORT |__asm___13_measurement_c_m____REVSH|
#line 144
|__asm___13_measurement_c_m____REVSH| PROC
#line 145

 revsh r0, r0
 bx lr
	ENDP

;*** End   embedded assembler ***
